---
triple:          'arm64-apple-darwin'
binary-path:     main
relocations:
  - { offsetInCU: 0x9A, offset: 0x9A, size: 0x8, addend: 0x0, symName: __ZSt23__is_constant_evaluatedv, symObjAddr: 0x0, symBinAddr: 0x10000273C, symSize: 0x8 }
  - { offsetInCU: 0x1DBF, offset: 0x1DBF, size: 0x8, addend: 0x0, symName: __ZNSt8__detail11__synth3wayE, symObjAddr: 0xB808, symBinAddr: 0x10000F690, symSize: 0x0 }
  - { offsetInCU: 0x174F0, offset: 0x174F0, size: 0x8, addend: 0x0, symName: __ZStL8__ioinit, symObjAddr: 0xE76F0, symBinAddr: 0x10001C3F0, symSize: 0x0 }
  - { offsetInCU: 0x1C395, offset: 0x1C395, size: 0x8, addend: 0x0, symName: __ZL4MAXN, symObjAddr: 0xB810, symBinAddr: 0x10000F698, symSize: 0x0 }
  - { offsetInCU: 0x1F401, offset: 0x1F401, size: 0x8, addend: 0x0, symName: _g, symObjAddr: 0xE76F8, symBinAddr: 0x10001C3F8, symSize: 0x0 }
  - { offsetInCU: 0x22497, offset: 0x22497, size: 0x8, addend: 0x0, symName: _binup, symObjAddr: 0xE7730, symBinAddr: 0x10001C430, symSize: 0x0 }
  - { offsetInCU: 0x224B3, offset: 0x224B3, size: 0x8, addend: 0x0, symName: _paths, symObjAddr: 0xE7D88, symBinAddr: 0x10001CA88, symSize: 0x0 }
  - { offsetInCU: 0x224DA, offset: 0x224DA, size: 0x8, addend: 0x0, symName: _index_of_path_of, symObjAddr: 0xE7DC0, symBinAddr: 0x10001CAC0, symSize: 0x0 }
  - { offsetInCU: 0x224F6, offset: 0x224F6, size: 0x8, addend: 0x0, symName: _index_in_path_of, symObjAddr: 0xE7DF8, symBinAddr: 0x10001CAF8, symSize: 0x0 }
  - { offsetInCU: 0x2251D, offset: 0x2251D, size: 0x8, addend: 0x0, symName: _lgg, symObjAddr: 0xE7E30, symBinAddr: 0x10001CB30, symSize: 0x0 }
  - { offsetInCU: 0x26DA2, offset: 0x26DA2, size: 0x8, addend: 0x0, symName: __ZNSt8__detail14__destructibleINSt9__cxx199813_Bit_iteratorEEE, symObjAddr: 0xB9CF, symBinAddr: 0x10000F857, symSize: 0x0 }
  - { offsetInCU: 0x26DBC, offset: 0x26DBC, size: 0x8, addend: 0x0, symName: __ZNSt8__detail19__destructible_implINSt9__cxx199813_Bit_iteratorEEE, symObjAddr: 0xB9D0, symBinAddr: 0x10000F858, symSize: 0x0 }
  - { offsetInCU: 0x2716E, offset: 0x2716E, size: 0x8, addend: 0x0, symName: __ZNSt8__detail14__destructibleINSt9__cxx199819_Bit_const_iteratorEEE, symObjAddr: 0xB9D1, symBinAddr: 0x10000F859, symSize: 0x0 }
  - { offsetInCU: 0x27188, offset: 0x27188, size: 0x8, addend: 0x0, symName: __ZNSt8__detail19__destructible_implINSt9__cxx199819_Bit_const_iteratorEEE, symObjAddr: 0xB9D2, symBinAddr: 0x10000F85A, symSize: 0x0 }
  - { offsetInCU: 0x2776C, offset: 0x2776C, size: 0x8, addend: 0x0, symName: __ZNSt8__detail14__destructibleINSt8__format10_Sink_iterIcEEEE, symObjAddr: 0xB9D3, symBinAddr: 0x10000F85B, symSize: 0x0 }
  - { offsetInCU: 0x27786, offset: 0x27786, size: 0x8, addend: 0x0, symName: __ZNSt8__detail19__destructible_implINSt8__format10_Sink_iterIcEEEE, symObjAddr: 0xB9D4, symBinAddr: 0x10000F85C, symSize: 0x0 }
  - { offsetInCU: 0x278CB, offset: 0x278CB, size: 0x8, addend: 0x0, symName: __ZNSt8__detail14__destructibleINSt8__format10_Sink_iterIwEEEE, symObjAddr: 0xB9D5, symBinAddr: 0x10000F85D, symSize: 0x0 }
  - { offsetInCU: 0x278E5, offset: 0x278E5, size: 0x8, addend: 0x0, symName: __ZNSt8__detail19__destructible_implINSt8__format10_Sink_iterIwEEEE, symObjAddr: 0xB9D6, symBinAddr: 0x10000F85E, symSize: 0x0 }
  - { offsetInCU: 0x279FC, offset: 0x279FC, size: 0x8, addend: 0x0, symName: __ZNSt8__detail14__destructibleIPcEE, symObjAddr: 0xB9D7, symBinAddr: 0x10000F85F, symSize: 0x0 }
  - { offsetInCU: 0x27A16, offset: 0x27A16, size: 0x8, addend: 0x0, symName: __ZNSt8__detail19__destructible_implIPcEE, symObjAddr: 0xB9D8, symBinAddr: 0x10000F860, symSize: 0x0 }
  - { offsetInCU: 0x27DC8, offset: 0x27DC8, size: 0x8, addend: 0x0, symName: __ZNSt8__detail14__destructibleIPwEE, symObjAddr: 0xB9D9, symBinAddr: 0x10000F861, symSize: 0x0 }
  - { offsetInCU: 0x27DE2, offset: 0x27DE2, size: 0x8, addend: 0x0, symName: __ZNSt8__detail19__destructible_implIPwEE, symObjAddr: 0xB9DA, symBinAddr: 0x10000F862, symSize: 0x0 }
  - { offsetInCU: 0x284E7, offset: 0x284E7, size: 0x8, addend: 0x0, symName: __ZNSt8__detail30__integer_to_chars_is_unsignedIjEE, symObjAddr: 0xB9DB, symBinAddr: 0x10000F863, symSize: 0x0 }
  - { offsetInCU: 0x28501, offset: 0x28501, size: 0x8, addend: 0x0, symName: __ZNSt8__detail30__integer_to_chars_is_unsignedImEE, symObjAddr: 0xB9DC, symBinAddr: 0x10000F864, symSize: 0x0 }
  - { offsetInCU: 0x2851B, offset: 0x2851B, size: 0x8, addend: 0x0, symName: __ZNSt8__detail30__integer_to_chars_is_unsignedIyEE, symObjAddr: 0xB9DD, symBinAddr: 0x10000F865, symSize: 0x0 }
  - { offsetInCU: 0x286BB, offset: 0x286BB, size: 0x8, addend: 0x0, symName: __ZSt22__is_specialization_ofINSt7__cxx1112basic_stringIcSt11char_traitsIcESaIcEEES1_E, symObjAddr: 0xB9DE, symBinAddr: 0x10000F866, symSize: 0x0 }
  - { offsetInCU: 0x28748, offset: 0x28748, size: 0x8, addend: 0x0, symName: __ZSt22__is_specialization_ofINSt7__cxx1112basic_stringIwSt11char_traitsIwESaIwEEES1_E, symObjAddr: 0xB9DF, symBinAddr: 0x10000F867, symSize: 0x0 }
  - { offsetInCU: 0x2881A, offset: 0x2881A, size: 0x8, addend: 0x0, symName: __ZNSt8__detail14__destructibleImEE, symObjAddr: 0xB9E0, symBinAddr: 0x10000F868, symSize: 0x0 }
  - { offsetInCU: 0x28834, offset: 0x28834, size: 0x8, addend: 0x0, symName: __ZNSt8__detail19__destructible_implImEE, symObjAddr: 0xB9E1, symBinAddr: 0x10000F869, symSize: 0x0 }
  - { offsetInCU: 0x28B14, offset: 0x28B14, size: 0x8, addend: 0x0, symName: __ZNSt8__detail14__destructibleIPKcEE, symObjAddr: 0xB9E2, symBinAddr: 0x10000F86A, symSize: 0x0 }
  - { offsetInCU: 0x28B2E, offset: 0x28B2E, size: 0x8, addend: 0x0, symName: __ZNSt8__detail19__destructible_implIPKcEE, symObjAddr: 0xB9E3, symBinAddr: 0x10000F86B, symSize: 0x0 }
  - { offsetInCU: 0x28DCC, offset: 0x28DCC, size: 0x8, addend: 0x0, symName: __ZNSt8__detail14__destructibleIPKwEE, symObjAddr: 0xB9E4, symBinAddr: 0x10000F86C, symSize: 0x0 }
  - { offsetInCU: 0x28DE6, offset: 0x28DE6, size: 0x8, addend: 0x0, symName: __ZNSt8__detail19__destructible_implIPKwEE, symObjAddr: 0xB9E5, symBinAddr: 0x10000F86D, symSize: 0x0 }
  - { offsetInCU: 0x29BBB, offset: 0x29BBB, size: 0x8, addend: 0x0, symName: __ZNSt8__detail14__destructibleIN9__gnu_cxx17__normal_iteratorIPwSt4spanIwLm18446744073709551615EEEEEE, symObjAddr: 0xBBC9, symBinAddr: 0x10000FA51, symSize: 0x0 }
  - { offsetInCU: 0x29BD5, offset: 0x29BD5, size: 0x8, addend: 0x0, symName: __ZNSt8__detail19__destructible_implIN9__gnu_cxx17__normal_iteratorIPwSt4spanIwLm18446744073709551615EEEEEE, symObjAddr: 0xBBCA, symBinAddr: 0x10000FA52, symSize: 0x0 }
  - { offsetInCU: 0x2A16A, offset: 0x2A16A, size: 0x8, addend: 0x0, symName: __ZNSt8__detail14__destructibleIN9__gnu_cxx17__normal_iteratorIPcSt4spanIcLm18446744073709551615EEEEEE, symObjAddr: 0xBBCB, symBinAddr: 0x10000FA53, symSize: 0x0 }
  - { offsetInCU: 0x2A184, offset: 0x2A184, size: 0x8, addend: 0x0, symName: __ZNSt8__detail19__destructible_implIN9__gnu_cxx17__normal_iteratorIPcSt4spanIcLm18446744073709551615EEEEEE, symObjAddr: 0xBBCC, symBinAddr: 0x10000FA54, symSize: 0x0 }
  - { offsetInCU: 0x2A36A, offset: 0x2A36A, size: 0x8, addend: 0x0, symName: __ZNSt8__detail14__destructibleIiEE, symObjAddr: 0xBBCD, symBinAddr: 0x10000FA55, symSize: 0x0 }
  - { offsetInCU: 0x2A384, offset: 0x2A384, size: 0x8, addend: 0x0, symName: __ZNSt8__detail19__destructible_implIiEE, symObjAddr: 0xBBCE, symBinAddr: 0x10000FA56, symSize: 0x0 }
  - { offsetInCU: 0x2A581, offset: 0x2A581, size: 0x8, addend: 0x0, symName: __ZNSt8__detail14__destructibleIjEE, symObjAddr: 0xBBCF, symBinAddr: 0x10000FA57, symSize: 0x0 }
  - { offsetInCU: 0x2A59B, offset: 0x2A59B, size: 0x8, addend: 0x0, symName: __ZNSt8__detail19__destructible_implIjEE, symObjAddr: 0xBBD0, symBinAddr: 0x10000FA58, symSize: 0x0 }
  - { offsetInCU: 0x2A76A, offset: 0x2A76A, size: 0x8, addend: 0x0, symName: __ZNSt8__detail14__destructibleIlEE, symObjAddr: 0xBBD1, symBinAddr: 0x10000FA59, symSize: 0x0 }
  - { offsetInCU: 0x2A784, offset: 0x2A784, size: 0x8, addend: 0x0, symName: __ZNSt8__detail19__destructible_implIlEE, symObjAddr: 0xBBD2, symBinAddr: 0x10000FA5A, symSize: 0x0 }
  - { offsetInCU: 0x2AE01, offset: 0x2AE01, size: 0x8, addend: 0x0, symName: __ZNSt8__detail30__integer_to_chars_is_unsignedIoEE, symObjAddr: 0xBBD3, symBinAddr: 0x10000FA5B, symSize: 0x0 }
  - { offsetInCU: 0x2AE45, offset: 0x2AE45, size: 0x8, addend: 0x0, symName: __GLOBAL__sub_I_main.cpp, symObjAddr: 0xB7F0, symBinAddr: 0x10000DF2C, symSize: 0x14 }
  - { offsetInCU: 0x2AE72, offset: 0x2AE72, size: 0x8, addend: 0x0, symName: __Z41__static_initialization_and_destruction_0v, symObjAddr: 0xB6C8, symBinAddr: 0x10000DE04, symSize: 0x128 }
  - { offsetInCU: 0x2AE7A, offset: 0x2AE7A, size: 0x8, addend: 0x0, symName: __GLOBAL__sub_I_main.cpp, symObjAddr: 0xB7F0, symBinAddr: 0x10000DF2C, symSize: 0x14 }
  - { offsetInCU: 0x2AE6B, offset: 0x2AE6B, size: 0x8, addend: 0x0, symName: ___tcf_1, symObjAddr: 0xB684, symBinAddr: 0x10000DDC0, symSize: 0x44 }
  - { offsetInCU: 0x2AE73, offset: 0x2AE73, size: 0x8, addend: 0x0, symName: __Z41__static_initialization_and_destruction_0v, symObjAddr: 0xB6C8, symBinAddr: 0x10000DE04, symSize: 0x128 }
  - { offsetInCU: 0x2AEE7, offset: 0x2AEE7, size: 0x8, addend: 0x0, symName: __ZNSt7__debug6vectorINS0_IxSaIxEEESaIS2_EED1Ev, symObjAddr: 0xB658, symBinAddr: 0x10000DD94, symSize: 0x2C }
  - { offsetInCU: 0x2AEEF, offset: 0x2AEEF, size: 0x8, addend: 0x0, symName: ___tcf_1, symObjAddr: 0xB684, symBinAddr: 0x10000DDC0, symSize: 0x44 }
  - { offsetInCU: 0x2AEE8, offset: 0x2AEE8, size: 0x8, addend: 0x0, symName: __ZNSt11__copy_moveILb0ELb0ESt26random_access_iterator_tagE12__assign_oneIxxEEvPT_PT0_, symObjAddr: 0xB630, symBinAddr: 0x10000DD6C, symSize: 0x28 }
  - { offsetInCU: 0x2AEF0, offset: 0x2AEF0, size: 0x8, addend: 0x0, symName: __ZNSt7__debug6vectorINS0_IxSaIxEEESaIS2_EED1Ev, symObjAddr: 0xB658, symBinAddr: 0x10000DD94, symSize: 0x2C }
  - { offsetInCU: 0x2B022, offset: 0x2B022, size: 0x8, addend: 0x0, symName: __ZN9__gnu_cxxmiIPKxNSt9__cxx19986vectorIxSaIxEEEEENS_17__normal_iteratorIT_T0_E15difference_typeERKSA_SD_, symObjAddr: 0xB5F0, symBinAddr: 0x10000DD2C, symSize: 0x40 }
  - { offsetInCU: 0x2B02A, offset: 0x2B02A, size: 0x8, addend: 0x0, symName: __ZNSt11__copy_moveILb0ELb0ESt26random_access_iterator_tagE12__assign_oneIxxEEvPT_PT0_, symObjAddr: 0xB630, symBinAddr: 0x10000DD6C, symSize: 0x28 }
  - { offsetInCU: 0x2AFC5, offset: 0x2AFC5, size: 0x8, addend: 0x0, symName: __ZNSt11__copy_moveILb0ELb1ESt26random_access_iterator_tagE8__copy_mIxxEEPT0_PT_S6_S4_, symObjAddr: 0xB560, symBinAddr: 0x10000DC9C, symSize: 0x90 }
  - { offsetInCU: 0x2AFCD, offset: 0x2AFCD, size: 0x8, addend: 0x0, symName: __ZN9__gnu_cxxmiIPKxNSt9__cxx19986vectorIxSaIxEEEEENS_17__normal_iteratorIT_T0_E15difference_typeERKSA_SD_, symObjAddr: 0xB5F0, symBinAddr: 0x10000DD2C, symSize: 0x40 }
  - { offsetInCU: 0x2B052, offset: 0x2B052, size: 0x8, addend: 0x0, symName: __ZNSt11__copy_moveILb0ELb0ESt26random_access_iterator_tagE8__copy_mIPxS3_EET0_T_S5_S4_, symObjAddr: 0xB4EC, symBinAddr: 0x10000DC28, symSize: 0x74 }
  - { offsetInCU: 0x2B05A, offset: 0x2B05A, size: 0x8, addend: 0x0, symName: __ZNSt11__copy_moveILb0ELb1ESt26random_access_iterator_tagE8__copy_mIxxEEPT0_PT_S6_S4_, symObjAddr: 0xB560, symBinAddr: 0x10000DC9C, symSize: 0x90 }
  - { offsetInCU: 0x2B194, offset: 0x2B194, size: 0x8, addend: 0x0, symName: __ZN11__gnu_debug14__get_distanceIPxEENS_16_Distance_traitsIT_NSt12__is_integerIS3_E6__typeEE6__typeES3_S3_St26random_access_iterator_tag, symObjAddr: 0xB4A8, symBinAddr: 0x10000DBE4, symSize: 0x44 }
  - { offsetInCU: 0x2B19C, offset: 0x2B19C, size: 0x8, addend: 0x0, symName: __ZNSt11__copy_moveILb0ELb0ESt26random_access_iterator_tagE8__copy_mIPxS3_EET0_T_S5_S4_, symObjAddr: 0xB4EC, symBinAddr: 0x10000DC28, symSize: 0x74 }
  - { offsetInCU: 0x2B240, offset: 0x2B240, size: 0x8, addend: 0x0, symName: __ZN11__gnu_debug14__get_distanceIN9__gnu_cxx17__normal_iteratorIPKxNSt9__cxx19986vectorIxSaIxEEEEEEENS_16_Distance_traitsIT_NSt12__is_integerISB_E6__typeEE6__typeESB_SB_St26random_access_iterator_tag, symObjAddr: 0xB468, symBinAddr: 0x10000DBA4, symSize: 0x40 }
  - { offsetInCU: 0x2B248, offset: 0x2B248, size: 0x8, addend: 0x0, symName: __ZN11__gnu_debug14__get_distanceIPxEENS_16_Distance_traitsIT_NSt12__is_integerIS3_E6__typeEE6__typeES3_S3_St26random_access_iterator_tag, symObjAddr: 0xB4A8, symBinAddr: 0x10000DBE4, symSize: 0x44 }
  - { offsetInCU: 0x2B2FB, offset: 0x2B2FB, size: 0x8, addend: 0x0, symName: __ZSt11__addressofIKN9__gnu_cxx17__normal_iteratorIPKxNSt9__cxx19986vectorIxSaIxEEEEEEPT_RSA_, symObjAddr: 0xB454, symBinAddr: 0x10000DB90, symSize: 0x14 }
  - { offsetInCU: 0x2B303, offset: 0x2B303, size: 0x8, addend: 0x0, symName: __ZN11__gnu_debug14__get_distanceIN9__gnu_cxx17__normal_iteratorIPKxNSt9__cxx19986vectorIxSaIxEEEEEEENS_16_Distance_traitsIT_NSt12__is_integerISB_E6__typeEE6__typeESB_SB_St26random_access_iterator_tag, symObjAddr: 0xB468, symBinAddr: 0x10000DBA4, symSize: 0x40 }
  - { offsetInCU: 0x2B2FC, offset: 0x2B2FC, size: 0x8, addend: 0x0, symName: __ZNSt4pairIlN11__gnu_debug19_Distance_precisionEEC1IlS1_EEOT_OT0_, symObjAddr: 0xB40C, symBinAddr: 0x10000DB48, symSize: 0x48 }
  - { offsetInCU: 0x2B304, offset: 0x2B304, size: 0x8, addend: 0x0, symName: __ZSt11__addressofIKN9__gnu_cxx17__normal_iteratorIPKxNSt9__cxx19986vectorIxSaIxEEEEEEPT_RSA_, symObjAddr: 0xB454, symBinAddr: 0x10000DB90, symSize: 0x14 }
  - { offsetInCU: 0x2B42D, offset: 0x2B42D, size: 0x8, addend: 0x0, symName: __ZSt13__copy_move_aILb0EN9__gnu_cxx17__normal_iteratorIPKxNSt9__cxx19986vectorIxSaIxEEEEEPxET1_T0_SB_SA_, symObjAddr: 0xB3AC, symBinAddr: 0x10000DAE8, symSize: 0x60 }
  - { offsetInCU: 0x2B435, offset: 0x2B435, size: 0x8, addend: 0x0, symName: __ZNSt4pairIlN11__gnu_debug19_Distance_precisionEEC1IlS1_EEOT_OT0_, symObjAddr: 0xB40C, symBinAddr: 0x10000DB48, symSize: 0x48 }
  - { offsetInCU: 0x2B42C, offset: 0x2B42C, size: 0x8, addend: 0x0, symName: __ZSt12construct_atIxJRxEEDTgsnwcvPvLi0E_T_pispcl7declvalIT0_EEEEPS2_DpOS3_, symObjAddr: 0xB364, symBinAddr: 0x10000DAA0, symSize: 0x48 }
  - { offsetInCU: 0x2B434, offset: 0x2B434, size: 0x8, addend: 0x0, symName: __ZSt13__copy_move_aILb0EN9__gnu_cxx17__normal_iteratorIPKxNSt9__cxx19986vectorIxSaIxEEEEEPxET1_T0_SB_SA_, symObjAddr: 0xB3AC, symBinAddr: 0x10000DAE8, symSize: 0x60 }
  - { offsetInCU: 0x2B470, offset: 0x2B470, size: 0x8, addend: 0x0, symName: __ZSt7forwardIRxEOT_RNSt16remove_referenceIS1_E4typeE, symObjAddr: 0xB350, symBinAddr: 0x10000DA8C, symSize: 0x14 }
  - { offsetInCU: 0x2B478, offset: 0x2B478, size: 0x8, addend: 0x0, symName: __ZSt12construct_atIxJRxEEDTgsnwcvPvLi0E_T_pispcl7declvalIT0_EEEEPS2_DpOS3_, symObjAddr: 0xB364, symBinAddr: 0x10000DAA0, symSize: 0x48 }
  - { offsetInCU: 0x2B4DC, offset: 0x2B4DC, size: 0x8, addend: 0x0, symName: __ZSt14__copy_move_a2ILb0EPxS0_ET1_T0_S2_S1_, symObjAddr: 0xB2F8, symBinAddr: 0x10000DA34, symSize: 0x58 }
  - { offsetInCU: 0x2B4E4, offset: 0x2B4E4, size: 0x8, addend: 0x0, symName: __ZSt7forwardIRxEOT_RNSt16remove_referenceIS1_E4typeE, symObjAddr: 0xB350, symBinAddr: 0x10000DA8C, symSize: 0x14 }
  - { offsetInCU: 0x2B57B, offset: 0x2B57B, size: 0x8, addend: 0x0, symName: __ZN11__gnu_debug14__get_distanceIPxEENS_16_Distance_traitsIT_NSt12__is_integerIS3_E6__typeEE6__typeES3_S3_, symObjAddr: 0xB2D0, symBinAddr: 0x10000DA0C, symSize: 0x28 }
  - { offsetInCU: 0x2B583, offset: 0x2B583, size: 0x8, addend: 0x0, symName: __ZSt14__copy_move_a2ILb0EPxS0_ET1_T0_S2_S1_, symObjAddr: 0xB2F8, symBinAddr: 0x10000DA34, symSize: 0x58 }
  - { offsetInCU: 0x2B5DA, offset: 0x2B5DA, size: 0x8, addend: 0x0, symName: __ZN11__gnu_debug17__valid_range_auxIPxEEbT_S2_St18input_iterator_tag, symObjAddr: 0xB258, symBinAddr: 0x10000D994, symSize: 0x78 }
  - { offsetInCU: 0x2B5E2, offset: 0x2B5E2, size: 0x8, addend: 0x0, symName: __ZN11__gnu_debug14__get_distanceIPxEENS_16_Distance_traitsIT_NSt12__is_integerIS3_E6__typeEE6__typeES3_S3_, symObjAddr: 0xB2D0, symBinAddr: 0x10000DA0C, symSize: 0x28 }
  - { offsetInCU: 0x2B64B, offset: 0x2B64B, size: 0x8, addend: 0x0, symName: __ZN11__gnu_debug16__check_singularIxEEbRKPT_, symObjAddr: 0xB234, symBinAddr: 0x10000D970, symSize: 0x24 }
  - { offsetInCU: 0x2B653, offset: 0x2B653, size: 0x8, addend: 0x0, symName: __ZN11__gnu_debug17__valid_range_auxIPxEEbT_S2_St18input_iterator_tag, symObjAddr: 0xB258, symBinAddr: 0x10000D994, symSize: 0x78 }
  - { offsetInCU: 0x2B646, offset: 0x2B646, size: 0x8, addend: 0x0, symName: __ZNK9__gnu_cxx17__normal_iteratorIPxNSt9__cxx19986vectorIxSaIxEEEEplEl, symObjAddr: 0xB1F4, symBinAddr: 0x10000D930, symSize: 0x40 }
  - { offsetInCU: 0x2B64E, offset: 0x2B64E, size: 0x8, addend: 0x0, symName: __ZN11__gnu_debug16__check_singularIxEEbRKPT_, symObjAddr: 0xB234, symBinAddr: 0x10000D970, symSize: 0x24 }
  - { offsetInCU: 0x2B73E, offset: 0x2B73E, size: 0x8, addend: 0x0, symName: __ZN11__gnu_debug14__get_distanceIN9__gnu_cxx17__normal_iteratorIPKxNSt9__cxx19986vectorIxSaIxEEEEEEENS_16_Distance_traitsIT_NSt12__is_integerISB_E6__typeEE6__typeESB_SB_, symObjAddr: 0xB1CC, symBinAddr: 0x10000D908, symSize: 0x28 }
  - { offsetInCU: 0x2B746, offset: 0x2B746, size: 0x8, addend: 0x0, symName: __ZNK9__gnu_cxx17__normal_iteratorIPxNSt9__cxx19986vectorIxSaIxEEEEplEl, symObjAddr: 0xB1F4, symBinAddr: 0x10000D930, symSize: 0x40 }
  - { offsetInCU: 0x2B79D, offset: 0x2B79D, size: 0x8, addend: 0x0, symName: __ZN11__gnu_debug17__valid_range_auxIN9__gnu_cxx17__normal_iteratorIPKxNSt9__cxx19986vectorIxSaIxEEEEEEEbT_SA_St18input_iterator_tag, symObjAddr: 0xB148, symBinAddr: 0x10000D884, symSize: 0x84 }
  - { offsetInCU: 0x2B7A5, offset: 0x2B7A5, size: 0x8, addend: 0x0, symName: __ZN11__gnu_debug14__get_distanceIN9__gnu_cxx17__normal_iteratorIPKxNSt9__cxx19986vectorIxSaIxEEEEEEENS_16_Distance_traitsIT_NSt12__is_integerISB_E6__typeEE6__typeESB_SB_, symObjAddr: 0xB1CC, symBinAddr: 0x10000D908, symSize: 0x28 }
  - { offsetInCU: 0x2B87C, offset: 0x2B87C, size: 0x8, addend: 0x0, symName: __ZN11__gnu_debug16__check_singularIN9__gnu_cxx17__normal_iteratorIPKxNSt9__cxx19986vectorIxSaIxEEEEEEEbRKT_, symObjAddr: 0xB0F0, symBinAddr: 0x10000D82C, symSize: 0x58 }
  - { offsetInCU: 0x2B884, offset: 0x2B884, size: 0x8, addend: 0x0, symName: __ZN11__gnu_debug17__valid_range_auxIN9__gnu_cxx17__normal_iteratorIPKxNSt9__cxx19986vectorIxSaIxEEEEEEEbT_SA_St18input_iterator_tag, symObjAddr: 0xB148, symBinAddr: 0x10000D884, symSize: 0x84 }
  - { offsetInCU: 0x2B7CA, offset: 0x2B7CA, size: 0x8, addend: 0x0, symName: __ZNSt11__copy_moveILb0ELb0ESt26random_access_iterator_tagE12__assign_oneIxKxEEvPT_PT0_, symObjAddr: 0xB0C8, symBinAddr: 0x10000D804, symSize: 0x28 }
  - { offsetInCU: 0x2B7D2, offset: 0x2B7D2, size: 0x8, addend: 0x0, symName: __ZN11__gnu_debug16__check_singularIN9__gnu_cxx17__normal_iteratorIPKxNSt9__cxx19986vectorIxSaIxEEEEEEEbRKT_, symObjAddr: 0xB0F0, symBinAddr: 0x10000D82C, symSize: 0x58 }
  - { offsetInCU: 0x2B907, offset: 0x2B907, size: 0x8, addend: 0x0, symName: __ZSt9make_pairIlN11__gnu_debug19_Distance_precisionEESt4pairINSt25__strip_reference_wrapperINSt5decayIT_E4typeEE6__typeENS3_INS4_IT0_E4typeEE6__typeEEOS5_OSA_, symObjAddr: 0xB07C, symBinAddr: 0x10000D7B8, symSize: 0x4C }
  - { offsetInCU: 0x2B90F, offset: 0x2B90F, size: 0x8, addend: 0x0, symName: __ZNSt11__copy_moveILb0ELb0ESt26random_access_iterator_tagE12__assign_oneIxKxEEvPT_PT0_, symObjAddr: 0xB0C8, symBinAddr: 0x10000D804, symSize: 0x28 }
  - { offsetInCU: 0x2B98D, offset: 0x2B98D, size: 0x8, addend: 0x0, symName: __ZSt4copyIN9__gnu_cxx17__normal_iteratorIPKxNSt9__cxx19986vectorIxSaIxEEEEEPxET0_T_SB_SA_, symObjAddr: 0xAE6C, symBinAddr: 0x10000D5A8, symSize: 0x210 }
  - { offsetInCU: 0x2B995, offset: 0x2B995, size: 0x8, addend: 0x0, symName: __ZSt9make_pairIlN11__gnu_debug19_Distance_precisionEESt4pairINSt25__strip_reference_wrapperINSt5decayIT_E4typeEE6__typeENS3_INS4_IT0_E4typeEE6__typeEEOS5_OSA_, symObjAddr: 0xB07C, symBinAddr: 0x10000D7B8, symSize: 0x4C }
  - { offsetInCU: 0x2B980, offset: 0x2B980, size: 0x8, addend: 0x0, symName: __ZNSt20__uninitialized_copyILb1EE13__uninit_copyIPxS2_EET0_T_S4_S3_, symObjAddr: 0xAE40, symBinAddr: 0x10000D57C, symSize: 0x2C }
  - { offsetInCU: 0x2B988, offset: 0x2B988, size: 0x8, addend: 0x0, symName: __ZSt4copyIN9__gnu_cxx17__normal_iteratorIPKxNSt9__cxx19986vectorIxSaIxEEEEEPxET0_T_SB_SA_, symObjAddr: 0xAE6C, symBinAddr: 0x10000D5A8, symSize: 0x210 }
  - { offsetInCU: 0x2BA41, offset: 0x2BA41, size: 0x8, addend: 0x0, symName: __ZSt10_ConstructIxJRxEEvPT_DpOT0_, symObjAddr: 0xADD0, symBinAddr: 0x10000D50C, symSize: 0x70 }
  - { offsetInCU: 0x2BA49, offset: 0x2BA49, size: 0x8, addend: 0x0, symName: __ZNSt20__uninitialized_copyILb1EE13__uninit_copyIPxS2_EET0_T_S4_S3_, symObjAddr: 0xAE40, symBinAddr: 0x10000D57C, symSize: 0x2C }
  - { offsetInCU: 0x2BAC2, offset: 0x2BAC2, size: 0x8, addend: 0x0, symName: __ZSt14__copy_move_a1ILb0EPxS0_ET1_T0_S2_S1_, symObjAddr: 0xADA4, symBinAddr: 0x10000D4E0, symSize: 0x2C }
  - { offsetInCU: 0x2BACA, offset: 0x2BACA, size: 0x8, addend: 0x0, symName: __ZSt10_ConstructIxJRxEEvPT_DpOT0_, symObjAddr: 0xADD0, symBinAddr: 0x10000D50C, symSize: 0x70 }
  - { offsetInCU: 0x2BB76, offset: 0x2BB76, size: 0x8, addend: 0x0, symName: __ZN11__gnu_debug17__valid_range_auxIPxEEbT_S2_RNS_16_Distance_traitsIS2_NSt12__is_integerIS2_E6__typeEE6__typeESt12__false_type, symObjAddr: 0xACCC, symBinAddr: 0x10000D408, symSize: 0xD8 }
  - { offsetInCU: 0x2BB7E, offset: 0x2BB7E, size: 0x8, addend: 0x0, symName: __ZSt14__copy_move_a1ILb0EPxS0_ET1_T0_S2_S1_, symObjAddr: 0xADA4, symBinAddr: 0x10000D4E0, symSize: 0x2C }
  - { offsetInCU: 0x2BB79, offset: 0x2BB79, size: 0x8, addend: 0x0, symName: __ZNSt12_Destroy_auxILb1EE9__destroyIN9__gnu_cxx17__normal_iteratorIPxNSt9__cxx19986vectorIxSaIxEEEEEEEvT_SA_, symObjAddr: 0xACB4, symBinAddr: 0x10000D3F0, symSize: 0x18 }
  - { offsetInCU: 0x2BB81, offset: 0x2BB81, size: 0x8, addend: 0x0, symName: __ZN11__gnu_debug17__valid_range_auxIPxEEbT_S2_RNS_16_Distance_traitsIS2_NSt12__is_integerIS2_E6__typeEE6__typeESt12__false_type, symObjAddr: 0xACCC, symBinAddr: 0x10000D408, symSize: 0xD8 }
  - { offsetInCU: 0x2BBBF, offset: 0x2BBBF, size: 0x8, addend: 0x0, symName: __ZNSt12_Destroy_auxILb0EE9__destroyIN9__gnu_cxx17__normal_iteratorIPxNSt9__cxx19986vectorIxSaIxEEEEEEEvT_SA_, symObjAddr: 0xAC54, symBinAddr: 0x10000D390, symSize: 0x60 }
  - { offsetInCU: 0x2BBC7, offset: 0x2BBC7, size: 0x8, addend: 0x0, symName: __ZNSt12_Destroy_auxILb1EE9__destroyIN9__gnu_cxx17__normal_iteratorIPxNSt9__cxx19986vectorIxSaIxEEEEEEEvT_SA_, symObjAddr: 0xACB4, symBinAddr: 0x10000D3F0, symSize: 0x18 }
  - { offsetInCU: 0x2BD0B, offset: 0x2BD0B, size: 0x8, addend: 0x0, symName: __ZSt12__niter_wrapIN9__gnu_cxx17__normal_iteratorIPxNSt9__cxx19986vectorIxSaIxEEEEES2_ET_S8_T0_, symObjAddr: 0xAC18, symBinAddr: 0x10000D354, symSize: 0x3C }
  - { offsetInCU: 0x2BD13, offset: 0x2BD13, size: 0x8, addend: 0x0, symName: __ZNSt12_Destroy_auxILb0EE9__destroyIN9__gnu_cxx17__normal_iteratorIPxNSt9__cxx19986vectorIxSaIxEEEEEEEvT_SA_, symObjAddr: 0xAC54, symBinAddr: 0x10000D390, symSize: 0x60 }
  - { offsetInCU: 0x2BD4A, offset: 0x2BD4A, size: 0x8, addend: 0x0, symName: __ZSt12__niter_baseIPxNSt9__cxx19986vectorIxSaIxEEEET_N9__gnu_cxx17__normal_iteratorIS5_T0_EE, symObjAddr: 0xABF8, symBinAddr: 0x10000D334, symSize: 0x20 }
  - { offsetInCU: 0x2BD52, offset: 0x2BD52, size: 0x8, addend: 0x0, symName: __ZSt12__niter_wrapIN9__gnu_cxx17__normal_iteratorIPxNSt9__cxx19986vectorIxSaIxEEEEES2_ET_S8_T0_, symObjAddr: 0xAC18, symBinAddr: 0x10000D354, symSize: 0x3C }
  - { offsetInCU: 0x2BDAC, offset: 0x2BDAC, size: 0x8, addend: 0x0, symName: __ZSt12__niter_baseIPKxNSt9__cxx19986vectorIxSaIxEEEET_N9__gnu_cxx17__normal_iteratorIS6_T0_EE, symObjAddr: 0xABD8, symBinAddr: 0x10000D314, symSize: 0x20 }
  - { offsetInCU: 0x2BDB4, offset: 0x2BDB4, size: 0x8, addend: 0x0, symName: __ZSt12__niter_baseIPxNSt9__cxx19986vectorIxSaIxEEEET_N9__gnu_cxx17__normal_iteratorIS5_T0_EE, symObjAddr: 0xABF8, symBinAddr: 0x10000D334, symSize: 0x20 }
  - { offsetInCU: 0x2BE2D, offset: 0x2BE2D, size: 0x8, addend: 0x0, symName: __ZN11__gnu_debug16_Error_formatter10_ParameterC1IPKxNSt9__cxx19986vectorIxSaIxEEEEERKN9__gnu_cxx17__normal_iteratorIT_T0_EEPKcNS0_12_Is_iteratorE, symObjAddr: 0xAB80, symBinAddr: 0x10000D2BC, symSize: 0x58 }
  - { offsetInCU: 0x2BE35, offset: 0x2BE35, size: 0x8, addend: 0x0, symName: __ZSt12__niter_baseIPKxNSt9__cxx19986vectorIxSaIxEEEET_N9__gnu_cxx17__normal_iteratorIS6_T0_EE, symObjAddr: 0xABD8, symBinAddr: 0x10000D314, symSize: 0x20 }
  - { offsetInCU: 0x2BED3, offset: 0x2BED3, size: 0x8, addend: 0x0, symName: __ZN11__gnu_debug17__valid_range_auxIN9__gnu_cxx17__normal_iteratorIPKxNSt9__cxx19986vectorIxSaIxEEEEEEEbT_SA_RNS_16_Distance_traitsISA_NSt12__is_integerISA_E6__typeEE6__typeESt12__false_type, symObjAddr: 0xAAA8, symBinAddr: 0x10000D1E4, symSize: 0xD8 }
  - { offsetInCU: 0x2BEDB, offset: 0x2BEDB, size: 0x8, addend: 0x0, symName: __ZN11__gnu_debug16_Error_formatter10_ParameterC1IPKxNSt9__cxx19986vectorIxSaIxEEEEERKN9__gnu_cxx17__normal_iteratorIT_T0_EEPKcNS0_12_Is_iteratorE, symObjAddr: 0xAB80, symBinAddr: 0x10000D2BC, symSize: 0x58 }
  - { offsetInCU: 0x2BE97, offset: 0x2BE97, size: 0x8, addend: 0x0, symName: __ZNSt11__copy_moveILb0ELb1ESt26random_access_iterator_tagE8__copy_mIKxxEEPT0_PT_S7_S5_, symObjAddr: 0xAA18, symBinAddr: 0x10000D154, symSize: 0x90 }
  - { offsetInCU: 0x2BE9F, offset: 0x2BE9F, size: 0x8, addend: 0x0, symName: __ZN11__gnu_debug17__valid_range_auxIN9__gnu_cxx17__normal_iteratorIPKxNSt9__cxx19986vectorIxSaIxEEEEEEEbT_SA_RNS_16_Distance_traitsISA_NSt12__is_integerISA_E6__typeEE6__typeESt12__false_type, symObjAddr: 0xAAA8, symBinAddr: 0x10000D1E4, symSize: 0xD8 }
  - { offsetInCU: 0x2BF24, offset: 0x2BF24, size: 0x8, addend: 0x0, symName: __ZNSt11__copy_moveILb0ELb0ESt26random_access_iterator_tagE8__copy_mIPKxPxEET0_T_S7_S6_, symObjAddr: 0xA9A4, symBinAddr: 0x10000D0E0, symSize: 0x74 }
  - { offsetInCU: 0x2BF2C, offset: 0x2BF2C, size: 0x8, addend: 0x0, symName: __ZNSt11__copy_moveILb0ELb1ESt26random_access_iterator_tagE8__copy_mIKxxEEPT0_PT_S7_S5_, symObjAddr: 0xAA18, symBinAddr: 0x10000D154, symSize: 0x90 }
  - { offsetInCU: 0x2C05A, offset: 0x2C05A, size: 0x8, addend: 0x0, symName: __ZSt7forwardIN11__gnu_debug19_Distance_precisionEEOT_RNSt16remove_referenceIS2_E4typeE, symObjAddr: 0xA990, symBinAddr: 0x10000D0CC, symSize: 0x14 }
  - { offsetInCU: 0x2C062, offset: 0x2C062, size: 0x8, addend: 0x0, symName: __ZNSt11__copy_moveILb0ELb0ESt26random_access_iterator_tagE8__copy_mIPKxPxEET0_T_S7_S6_, symObjAddr: 0xA9A4, symBinAddr: 0x10000D0E0, symSize: 0x74 }
  - { offsetInCU: 0x2C075, offset: 0x2C075, size: 0x8, addend: 0x0, symName: __ZSt7forwardIlEOT_RNSt16remove_referenceIS0_E4typeE, symObjAddr: 0xA97C, symBinAddr: 0x10000D0B8, symSize: 0x14 }
  - { offsetInCU: 0x2C07D, offset: 0x2C07D, size: 0x8, addend: 0x0, symName: __ZSt7forwardIN11__gnu_debug19_Distance_precisionEEOT_RNSt16remove_referenceIS2_E4typeE, symObjAddr: 0xA990, symBinAddr: 0x10000D0CC, symSize: 0x14 }
  - { offsetInCU: 0x2C113, offset: 0x2C113, size: 0x8, addend: 0x0, symName: __ZN11__gnu_debug14__get_distanceIPKxEENS_16_Distance_traitsIT_NSt12__is_integerIS4_E6__typeEE6__typeES4_S4_St26random_access_iterator_tag, symObjAddr: 0xA938, symBinAddr: 0x10000D074, symSize: 0x44 }
  - { offsetInCU: 0x2C11B, offset: 0x2C11B, size: 0x8, addend: 0x0, symName: __ZSt7forwardIlEOT_RNSt16remove_referenceIS0_E4typeE, symObjAddr: 0xA97C, symBinAddr: 0x10000D0B8, symSize: 0x14 }
  - { offsetInCU: 0x2C0EE, offset: 0x2C0EE, size: 0x8, addend: 0x0, symName: __ZNSt20__uninitialized_copyILb1EE13__uninit_copyIN9__gnu_cxx17__normal_iteratorIPKxNSt9__cxx19986vectorIxSaIxEEEEEPxEET0_T_SD_SC_, symObjAddr: 0xA90C, symBinAddr: 0x10000D048, symSize: 0x2C }
  - { offsetInCU: 0x2C0F6, offset: 0x2C0F6, size: 0x8, addend: 0x0, symName: __ZN11__gnu_debug14__get_distanceIPKxEENS_16_Distance_traitsIT_NSt12__is_integerIS4_E6__typeEE6__typeES4_S4_St26random_access_iterator_tag, symObjAddr: 0xA938, symBinAddr: 0x10000D074, symSize: 0x44 }
  - { offsetInCU: 0x2C163, offset: 0x2C163, size: 0x8, addend: 0x0, symName: __ZNK9__gnu_cxx17__normal_iteratorIPKxNSt9__cxx19986vectorIxSaIxEEEEdeEv, symObjAddr: 0xA8F4, symBinAddr: 0x10000D030, symSize: 0x18 }
  - { offsetInCU: 0x2C16B, offset: 0x2C16B, size: 0x8, addend: 0x0, symName: __ZNSt20__uninitialized_copyILb1EE13__uninit_copyIN9__gnu_cxx17__normal_iteratorIPKxNSt9__cxx19986vectorIxSaIxEEEEEPxEET0_T_SD_SC_, symObjAddr: 0xA90C, symBinAddr: 0x10000D048, symSize: 0x2C }
  - { offsetInCU: 0x2C194, offset: 0x2C194, size: 0x8, addend: 0x0, symName: __ZN9__gnu_cxx17__normal_iteratorIPKxNSt9__cxx19986vectorIxSaIxEEEEppEv, symObjAddr: 0xA8CC, symBinAddr: 0x10000D008, symSize: 0x28 }
  - { offsetInCU: 0x2C19C, offset: 0x2C19C, size: 0x8, addend: 0x0, symName: __ZNK9__gnu_cxx17__normal_iteratorIPKxNSt9__cxx19986vectorIxSaIxEEEEdeEv, symObjAddr: 0xA8F4, symBinAddr: 0x10000D030, symSize: 0x18 }
  - { offsetInCU: 0x2C227, offset: 0x2C227, size: 0x8, addend: 0x0, symName: __ZSt18uninitialized_copyIPxS0_ET0_T_S2_S1_, symObjAddr: 0xA890, symBinAddr: 0x10000CFCC, symSize: 0x3C }
  - { offsetInCU: 0x2C22F, offset: 0x2C22F, size: 0x8, addend: 0x0, symName: __ZN9__gnu_cxx17__normal_iteratorIPKxNSt9__cxx19986vectorIxSaIxEEEEppEv, symObjAddr: 0xA8CC, symBinAddr: 0x10000D008, symSize: 0x28 }
  - { offsetInCU: 0x2C2CA, offset: 0x2C2CA, size: 0x8, addend: 0x0, symName: __ZSt16__do_uninit_copyIPxS0_ET0_T_S2_S1_, symObjAddr: 0xA82C, symBinAddr: 0x10000CF68, symSize: 0x64 }
  - { offsetInCU: 0x2C2D2, offset: 0x2C2D2, size: 0x8, addend: 0x0, symName: __ZSt18uninitialized_copyIPxS0_ET0_T_S2_S1_, symObjAddr: 0xA890, symBinAddr: 0x10000CFCC, symSize: 0x3C }
  - { offsetInCU: 0x2C365, offset: 0x2C365, size: 0x8, addend: 0x0, symName: __ZSt13__copy_move_aILb0EPxS0_ET1_T0_S2_S1_, symObjAddr: 0xA7CC, symBinAddr: 0x10000CF08, symSize: 0x60 }
  - { offsetInCU: 0x2C36D, offset: 0x2C36D, size: 0x8, addend: 0x0, symName: __ZSt16__do_uninit_copyIPxS0_ET0_T_S2_S1_, symObjAddr: 0xA82C, symBinAddr: 0x10000CF68, symSize: 0x64 }
  - { offsetInCU: 0x2C3D1, offset: 0x2C3D1, size: 0x8, addend: 0x0, symName: __ZSt12__miter_baseIPxET_S1_, symObjAddr: 0xA7B8, symBinAddr: 0x10000CEF4, symSize: 0x14 }
  - { offsetInCU: 0x2C3D9, offset: 0x2C3D9, size: 0x8, addend: 0x0, symName: __ZSt13__copy_move_aILb0EPxS0_ET1_T0_S2_S1_, symObjAddr: 0xA7CC, symBinAddr: 0x10000CF08, symSize: 0x60 }
  - { offsetInCU: 0x2C46F, offset: 0x2C46F, size: 0x8, addend: 0x0, symName: __ZN11__gnu_debug13__valid_rangeIPxEEbT_S2_RNS_16_Distance_traitsIS2_NSt12__is_integerIS2_E6__typeEE6__typeE, symObjAddr: 0xA788, symBinAddr: 0x10000CEC4, symSize: 0x30 }
  - { offsetInCU: 0x2C477, offset: 0x2C477, size: 0x8, addend: 0x0, symName: __ZSt12__miter_baseIPxET_S1_, symObjAddr: 0xA7B8, symBinAddr: 0x10000CEF4, symSize: 0x14 }
  - { offsetInCU: 0x2C52B, offset: 0x2C52B, size: 0x8, addend: 0x0, symName: __ZSt8_DestroyIN9__gnu_cxx17__normal_iteratorIPxNSt9__cxx19986vectorIxSaIxEEEEEEvT_S8_, symObjAddr: 0xA740, symBinAddr: 0x10000CE7C, symSize: 0x48 }
  - { offsetInCU: 0x2C533, offset: 0x2C533, size: 0x8, addend: 0x0, symName: __ZN11__gnu_debug13__valid_rangeIPxEEbT_S2_RNS_16_Distance_traitsIS2_NSt12__is_integerIS2_E6__typeEE6__typeE, symObjAddr: 0xA788, symBinAddr: 0x10000CEC4, symSize: 0x30 }
  - { offsetInCU: 0x2C62D, offset: 0x2C62D, size: 0x8, addend: 0x0, symName: __ZSt13__copy_move_aILb0EN9__gnu_cxx17__normal_iteratorIPKxNSt9__cxx19986vectorIxSaIxEEEEENS1_IPxS7_EEET1_T0_SC_SB_, symObjAddr: 0xA6E0, symBinAddr: 0x10000CE1C, symSize: 0x60 }
  - { offsetInCU: 0x2C635, offset: 0x2C635, size: 0x8, addend: 0x0, symName: __ZSt8_DestroyIN9__gnu_cxx17__normal_iteratorIPxNSt9__cxx19986vectorIxSaIxEEEEEEvT_S8_, symObjAddr: 0xA740, symBinAddr: 0x10000CE7C, symSize: 0x48 }
  - { offsetInCU: 0x2C62A, offset: 0x2C62A, size: 0x8, addend: 0x0, symName: __ZSt12__miter_baseIN9__gnu_cxx17__normal_iteratorIPKxNSt9__cxx19986vectorIxSaIxEEEEEET_S9_, symObjAddr: 0xA6CC, symBinAddr: 0x10000CE08, symSize: 0x14 }
  - { offsetInCU: 0x2C632, offset: 0x2C632, size: 0x8, addend: 0x0, symName: __ZSt13__copy_move_aILb0EN9__gnu_cxx17__normal_iteratorIPKxNSt9__cxx19986vectorIxSaIxEEEEENS1_IPxS7_EEET1_T0_SC_SB_, symObjAddr: 0xA6E0, symBinAddr: 0x10000CE1C, symSize: 0x60 }
  - { offsetInCU: 0x2C6B0, offset: 0x2C6B0, size: 0x8, addend: 0x0, symName: __ZN11__gnu_debug13__can_advanceIN9__gnu_cxx17__normal_iteratorIPxNSt9__cxx19986vectorIxSaIxEEEEElEEbT_RKSt4pairIT0_NS_19_Distance_precisionEEi, symObjAddr: 0xA6B0, symBinAddr: 0x10000CDEC, symSize: 0x1C }
  - { offsetInCU: 0x2C6B8, offset: 0x2C6B8, size: 0x8, addend: 0x0, symName: __ZSt12__miter_baseIN9__gnu_cxx17__normal_iteratorIPKxNSt9__cxx19986vectorIxSaIxEEEEEET_S9_, symObjAddr: 0xA6CC, symBinAddr: 0x10000CE08, symSize: 0x14 }
  - { offsetInCU: 0x2C5FB, offset: 0x2C5FB, size: 0x8, addend: 0x0, symName: __ZN11__gnu_debug16_Error_formatter11_M_iteratorIN9__gnu_cxx17__normal_iteratorIPKxNSt9__cxx19986vectorIxSaIxEEEEEEERS0_RKT_PKc, symObjAddr: 0xA61C, symBinAddr: 0x10000CD58, symSize: 0x94 }
  - { offsetInCU: 0x2C603, offset: 0x2C603, size: 0x8, addend: 0x0, symName: __ZN11__gnu_debug13__can_advanceIN9__gnu_cxx17__normal_iteratorIPxNSt9__cxx19986vectorIxSaIxEEEEElEEbT_RKSt4pairIT0_NS_19_Distance_precisionEEi, symObjAddr: 0xA6B0, symBinAddr: 0x10000CDEC, symSize: 0x1C }
  - { offsetInCU: 0x2C7A0, offset: 0x2C7A0, size: 0x8, addend: 0x0, symName: __ZN11__gnu_debug13__valid_rangeIN9__gnu_cxx17__normal_iteratorIPKxNSt9__cxx19986vectorIxSaIxEEEEEEEbT_SA_RNS_16_Distance_traitsISA_NSt12__is_integerISA_E6__typeEE6__typeE, symObjAddr: 0xA5EC, symBinAddr: 0x10000CD28, symSize: 0x30 }
  - { offsetInCU: 0x2C7A8, offset: 0x2C7A8, size: 0x8, addend: 0x0, symName: __ZN11__gnu_debug16_Error_formatter11_M_iteratorIN9__gnu_cxx17__normal_iteratorIPKxNSt9__cxx19986vectorIxSaIxEEEEEEERS0_RKT_PKc, symObjAddr: 0xA61C, symBinAddr: 0x10000CD58, symSize: 0x94 }
  - { offsetInCU: 0x2C753, offset: 0x2C753, size: 0x8, addend: 0x0, symName: __ZSt12construct_atIxJxEEDTgsnwcvPvLi0E_T_pispcl7declvalIT0_EEEEPS1_DpOS2_, symObjAddr: 0xA5A4, symBinAddr: 0x10000CCE0, symSize: 0x48 }
  - { offsetInCU: 0x2C75B, offset: 0x2C75B, size: 0x8, addend: 0x0, symName: __ZN11__gnu_debug13__valid_rangeIN9__gnu_cxx17__normal_iteratorIPKxNSt9__cxx19986vectorIxSaIxEEEEEEEbT_SA_RNS_16_Distance_traitsISA_NSt12__is_integerISA_E6__typeEE6__typeE, symObjAddr: 0xA5EC, symBinAddr: 0x10000CD28, symSize: 0x30 }
  - { offsetInCU: 0x2C797, offset: 0x2C797, size: 0x8, addend: 0x0, symName: __ZSt7forwardIxEOT_RNSt16remove_referenceIS0_E4typeE, symObjAddr: 0xA590, symBinAddr: 0x10000CCCC, symSize: 0x14 }
  - { offsetInCU: 0x2C79F, offset: 0x2C79F, size: 0x8, addend: 0x0, symName: __ZSt12construct_atIxJxEEDTgsnwcvPvLi0E_T_pispcl7declvalIT0_EEEEPS1_DpOS2_, symObjAddr: 0xA5A4, symBinAddr: 0x10000CCE0, symSize: 0x48 }
  - { offsetInCU: 0x2C80B, offset: 0x2C80B, size: 0x8, addend: 0x0, symName: __ZSt14__copy_move_a2ILb0EPKxPxET1_T0_S4_S3_, symObjAddr: 0xA538, symBinAddr: 0x10000CC74, symSize: 0x58 }
  - { offsetInCU: 0x2C813, offset: 0x2C813, size: 0x8, addend: 0x0, symName: __ZSt7forwardIxEOT_RNSt16remove_referenceIS0_E4typeE, symObjAddr: 0xA590, symBinAddr: 0x10000CCCC, symSize: 0x14 }
  - { offsetInCU: 0x2C831, offset: 0x2C831, size: 0x8, addend: 0x0, symName: __ZNSt4pairIlN11__gnu_debug19_Distance_precisionEEaSEOS2_, symObjAddr: 0xA4F0, symBinAddr: 0x10000CC2C, symSize: 0x48 }
  - { offsetInCU: 0x2C839, offset: 0x2C839, size: 0x8, addend: 0x0, symName: __ZSt14__copy_move_a2ILb0EPKxPxET1_T0_S4_S3_, symObjAddr: 0xA538, symBinAddr: 0x10000CC74, symSize: 0x58 }
  - { offsetInCU: 0x2C8EB, offset: 0x2C8EB, size: 0x8, addend: 0x0, symName: __ZN11__gnu_debug14__get_distanceIPKxEENS_16_Distance_traitsIT_NSt12__is_integerIS4_E6__typeEE6__typeES4_S4_, symObjAddr: 0xA4C8, symBinAddr: 0x10000CC04, symSize: 0x28 }
  - { offsetInCU: 0x2C8F3, offset: 0x2C8F3, size: 0x8, addend: 0x0, symName: __ZNSt4pairIlN11__gnu_debug19_Distance_precisionEEaSEOS2_, symObjAddr: 0xA4F0, symBinAddr: 0x10000CC2C, symSize: 0x48 }
  - { offsetInCU: 0x2CA08, offset: 0x2CA08, size: 0x8, addend: 0x0, symName: __ZSt18uninitialized_copyIN9__gnu_cxx17__normal_iteratorIPKxNSt9__cxx19986vectorIxSaIxEEEEEPxET0_T_SB_SA_, symObjAddr: 0xA48C, symBinAddr: 0x10000CBC8, symSize: 0x3C }
  - { offsetInCU: 0x2CA10, offset: 0x2CA10, size: 0x8, addend: 0x0, symName: __ZN11__gnu_debug14__get_distanceIPKxEENS_16_Distance_traitsIT_NSt12__is_integerIS4_E6__typeEE6__typeES4_S4_, symObjAddr: 0xA4C8, symBinAddr: 0x10000CC04, symSize: 0x28 }
  - { offsetInCU: 0x2CAAB, offset: 0x2CAAB, size: 0x8, addend: 0x0, symName: __ZSt16__do_uninit_copyIN9__gnu_cxx17__normal_iteratorIPKxNSt9__cxx19986vectorIxSaIxEEEEEPxET0_T_SB_SA_, symObjAddr: 0xA400, symBinAddr: 0x10000CB3C, symSize: 0x8C }
  - { offsetInCU: 0x2CAB3, offset: 0x2CAB3, size: 0x8, addend: 0x0, symName: __ZSt18uninitialized_copyIN9__gnu_cxx17__normal_iteratorIPKxNSt9__cxx19986vectorIxSaIxEEEEEPxET0_T_SB_SA_, symObjAddr: 0xA48C, symBinAddr: 0x10000CBC8, symSize: 0x3C }
  - { offsetInCU: 0x2CAD8, offset: 0x2CAD8, size: 0x8, addend: 0x0, symName: __ZSt22__uninitialized_copy_aIPxS0_xET0_T_S2_S1_RSaIT1_E, symObjAddr: 0xA3A4, symBinAddr: 0x10000CAE0, symSize: 0x5C }
  - { offsetInCU: 0x2CAE0, offset: 0x2CAE0, size: 0x8, addend: 0x0, symName: __ZSt16__do_uninit_copyIN9__gnu_cxx17__normal_iteratorIPKxNSt9__cxx19986vectorIxSaIxEEEEEPxET0_T_SB_SA_, symObjAddr: 0xA400, symBinAddr: 0x10000CB3C, symSize: 0x8C }
  - { offsetInCU: 0x2CB3A, offset: 0x2CB3A, size: 0x8, addend: 0x0, symName: __ZSt4copyIPxS0_ET0_T_S2_S1_, symObjAddr: 0xA19C, symBinAddr: 0x10000C8D8, symSize: 0x208 }
  - { offsetInCU: 0x2CB42, offset: 0x2CB42, size: 0x8, addend: 0x0, symName: __ZSt22__uninitialized_copy_aIPxS0_xET0_T_S2_S1_RSaIT1_E, symObjAddr: 0xA3A4, symBinAddr: 0x10000CAE0, symSize: 0x5C }
  - { offsetInCU: 0x2CD90, offset: 0x2CD90, size: 0x8, addend: 0x0, symName: __ZSt4copyIN9__gnu_cxx17__normal_iteratorIPKxNSt9__cxx19986vectorIxSaIxEEEEENS1_IPxS7_EEET0_T_SC_SB_, symObjAddr: 0x9F88, symBinAddr: 0x10000C6C4, symSize: 0x214 }
  - { offsetInCU: 0x2CD98, offset: 0x2CD98, size: 0x8, addend: 0x0, symName: __ZSt4copyIPxS0_ET0_T_S2_S1_, symObjAddr: 0xA19C, symBinAddr: 0x10000C8D8, symSize: 0x208 }
  - { offsetInCU: 0x2CD13, offset: 0x2CD13, size: 0x8, addend: 0x0, symName: __ZNSt9__cxx19986vectorIxSaIxEE20_M_allocate_and_copyIN9__gnu_cxx17__normal_iteratorIPKxS2_EEEEPxmT_SA_, symObjAddr: 0x9F04, symBinAddr: 0x10000C640, symSize: 0x84 }
  - { offsetInCU: 0x2CD1B, offset: 0x2CD1B, size: 0x8, addend: 0x0, symName: __ZSt4copyIN9__gnu_cxx17__normal_iteratorIPKxNSt9__cxx19986vectorIxSaIxEEEEENS1_IPxS7_EEET0_T_SC_SB_, symObjAddr: 0x9F88, symBinAddr: 0x10000C6C4, symSize: 0x214 }
  - { offsetInCU: 0x2CEA8, offset: 0x2CEA8, size: 0x8, addend: 0x0, symName: __ZSt11__addressofIKNSt9__cxx19986vectorIxSaIxEEEEPT_RS5_, symObjAddr: 0x9EF0, symBinAddr: 0x10000C62C, symSize: 0x14 }
  - { offsetInCU: 0x2CEB0, offset: 0x2CEB0, size: 0x8, addend: 0x0, symName: __ZNSt9__cxx19986vectorIxSaIxEE20_M_allocate_and_copyIN9__gnu_cxx17__normal_iteratorIPKxS2_EEEEPxmT_SA_, symObjAddr: 0x9F04, symBinAddr: 0x10000C640, symSize: 0x84 }
  - { offsetInCU: 0x2CFA7, offset: 0x2CFA7, size: 0x8, addend: 0x0, symName: __ZSt11__addressofIKN9__gnu_cxx17__normal_iteratorIPNSt7__debug6vectorIxSaIxEEENSt9__cxx19986vectorIS5_SaIS5_EEEEEEPT_RSD_, symObjAddr: 0x9EDC, symBinAddr: 0x10000C618, symSize: 0x14 }
  - { offsetInCU: 0x2CFAF, offset: 0x2CFAF, size: 0x8, addend: 0x0, symName: __ZSt11__addressofIKNSt9__cxx19986vectorIxSaIxEEEEPT_RS5_, symObjAddr: 0x9EF0, symBinAddr: 0x10000C62C, symSize: 0x14 }
  - { offsetInCU: 0x2CF92, offset: 0x2CF92, size: 0x8, addend: 0x0, symName: __ZSt11__addressofIKN9__gnu_cxx17__normal_iteratorIPxNSt9__cxx19986vectorIxSaIxEEEEEEPT_RS9_, symObjAddr: 0x9EC8, symBinAddr: 0x10000C604, symSize: 0x14 }
  - { offsetInCU: 0x2CF9A, offset: 0x2CF9A, size: 0x8, addend: 0x0, symName: __ZSt11__addressofIKN9__gnu_cxx17__normal_iteratorIPNSt7__debug6vectorIxSaIxEEENSt9__cxx19986vectorIS5_SaIS5_EEEEEEPT_RSD_, symObjAddr: 0x9EDC, symBinAddr: 0x10000C618, symSize: 0x14 }
  - { offsetInCU: 0x2CF9C, offset: 0x2CF9C, size: 0x8, addend: 0x0, symName: __ZSt4moveIRxEONSt16remove_referenceIT_E4typeEOS2_, symObjAddr: 0x9EB4, symBinAddr: 0x10000C5F0, symSize: 0x14 }
  - { offsetInCU: 0x2CFA4, offset: 0x2CFA4, size: 0x8, addend: 0x0, symName: __ZSt11__addressofIKN9__gnu_cxx17__normal_iteratorIPxNSt9__cxx19986vectorIxSaIxEEEEEEPT_RS9_, symObjAddr: 0x9EC8, symBinAddr: 0x10000C604, symSize: 0x14 }
  - { offsetInCU: 0x2D005, offset: 0x2D005, size: 0x8, addend: 0x0, symName: __ZSt12__niter_wrapIPxET_RKS1_S1_, symObjAddr: 0x9E9C, symBinAddr: 0x10000C5D8, symSize: 0x18 }
  - { offsetInCU: 0x2D00D, offset: 0x2D00D, size: 0x8, addend: 0x0, symName: __ZSt4moveIRxEONSt16remove_referenceIT_E4typeEOS2_, symObjAddr: 0x9EB4, symBinAddr: 0x10000C5F0, symSize: 0x14 }
  - { offsetInCU: 0x2D08A, offset: 0x2D08A, size: 0x8, addend: 0x0, symName: __ZSt14__copy_move_a1ILb0EPKxPxET1_T0_S4_S3_, symObjAddr: 0x9E70, symBinAddr: 0x10000C5AC, symSize: 0x2C }
  - { offsetInCU: 0x2D092, offset: 0x2D092, size: 0x8, addend: 0x0, symName: __ZSt12__niter_wrapIPxET_RKS1_S1_, symObjAddr: 0x9E9C, symBinAddr: 0x10000C5D8, symSize: 0x18 }
  - { offsetInCU: 0x2D0F5, offset: 0x2D0F5, size: 0x8, addend: 0x0, symName: __ZSt12__niter_baseIPKxET_S2_, symObjAddr: 0x9E5C, symBinAddr: 0x10000C598, symSize: 0x14 }
  - { offsetInCU: 0x2D0FD, offset: 0x2D0FD, size: 0x8, addend: 0x0, symName: __ZSt14__copy_move_a1ILb0EPKxPxET1_T0_S4_S3_, symObjAddr: 0x9E70, symBinAddr: 0x10000C5AC, symSize: 0x2C }
  - { offsetInCU: 0x2D187, offset: 0x2D187, size: 0x8, addend: 0x0, symName: __ZN11__gnu_debug17__valid_range_auxIPKxEEbT_S3_RNS_16_Distance_traitsIS3_NSt12__is_integerIS3_E6__typeEE6__typeESt12__false_type, symObjAddr: 0x9D84, symBinAddr: 0x10000C4C0, symSize: 0xD8 }
  - { offsetInCU: 0x2D18F, offset: 0x2D18F, size: 0x8, addend: 0x0, symName: __ZSt12__niter_baseIPKxET_S2_, symObjAddr: 0x9E5C, symBinAddr: 0x10000C598, symSize: 0x14 }
  - { offsetInCU: 0x2D1F2, offset: 0x2D1F2, size: 0x8, addend: 0x0, symName: __ZSt12construct_atIxJEEDTgsnwcvPvLi0E_T_pispcl7declvalIT0_EEEEPS1_DpOS2_, symObjAddr: 0x9D5C, symBinAddr: 0x10000C498, symSize: 0x28 }
  - { offsetInCU: 0x2D1FA, offset: 0x2D1FA, size: 0x8, addend: 0x0, symName: __ZN11__gnu_debug17__valid_range_auxIPKxEEbT_S3_RNS_16_Distance_traitsIS3_NSt12__is_integerIS3_E6__typeEE6__typeESt12__false_type, symObjAddr: 0x9D84, symBinAddr: 0x10000C4C0, symSize: 0xD8 }
  - { offsetInCU: 0x2D30D, offset: 0x2D30D, size: 0x8, addend: 0x0, symName: __ZSt22__uninitialized_copy_aIN9__gnu_cxx17__normal_iteratorIPKxNSt9__cxx19986vectorIxSaIxEEEEEPxxET0_T_SB_SA_RSaIT1_E, symObjAddr: 0x9D00, symBinAddr: 0x10000C43C, symSize: 0x5C }
  - { offsetInCU: 0x2D315, offset: 0x2D315, size: 0x8, addend: 0x0, symName: __ZSt12construct_atIxJEEDTgsnwcvPvLi0E_T_pispcl7declvalIT0_EEEEPS1_DpOS2_, symObjAddr: 0x9D5C, symBinAddr: 0x10000C498, symSize: 0x28 }
  - { offsetInCU: 0x2D29C, offset: 0x2D29C, size: 0x8, addend: 0x0, symName: __ZN11__gnu_debug12_Safe_vectorINSt7__debug6vectorIxSaIxEEENSt9__cxx19986vectorIxS3_EEEaSERKS8_, symObjAddr: 0x9CDC, symBinAddr: 0x10000C418, symSize: 0x24 }
  - { offsetInCU: 0x2D2A4, offset: 0x2D2A4, size: 0x8, addend: 0x0, symName: __ZSt22__uninitialized_copy_aIN9__gnu_cxx17__normal_iteratorIPKxNSt9__cxx19986vectorIxSaIxEEEEEPxxET0_T_SB_SA_RSaIT1_E, symObjAddr: 0x9D00, symBinAddr: 0x10000C43C, symSize: 0x5C }
  - { offsetInCU: 0x2D2DA, offset: 0x2D2DA, size: 0x8, addend: 0x0, symName: __ZNSt9__cxx19986vectorIxSaIxEEaSERKS2_, symObjAddr: 0x998C, symBinAddr: 0x10000C0C8, symSize: 0x350 }
  - { offsetInCU: 0x2D2E2, offset: 0x2D2E2, size: 0x8, addend: 0x0, symName: __ZN11__gnu_debug12_Safe_vectorINSt7__debug6vectorIxSaIxEEENSt9__cxx19986vectorIxS3_EEEaSERKS8_, symObjAddr: 0x9CDC, symBinAddr: 0x10000C418, symSize: 0x24 }
  - { offsetInCU: 0x2D4A9, offset: 0x2D4A9, size: 0x8, addend: 0x0, symName: __ZN11__gnu_debug15_Safe_containerINSt7__debug6vectorIxSaIxEEES3_NS_14_Safe_sequenceELb1EEaSERKS6_, symObjAddr: 0x9968, symBinAddr: 0x10000C0A4, symSize: 0x24 }
  - { offsetInCU: 0x2D4B1, offset: 0x2D4B1, size: 0x8, addend: 0x0, symName: __ZNSt9__cxx19986vectorIxSaIxEEaSERKS2_, symObjAddr: 0x998C, symBinAddr: 0x10000C0C8, symSize: 0x350 }
  - { offsetInCU: 0x2D55B, offset: 0x2D55B, size: 0x8, addend: 0x0, symName: __ZSt11__addressofIKPNSt7__debug6vectorIxSaIxEEEEPT_RS6_, symObjAddr: 0x9954, symBinAddr: 0x10000C090, symSize: 0x14 }
  - { offsetInCU: 0x2D563, offset: 0x2D563, size: 0x8, addend: 0x0, symName: __ZN11__gnu_debug15_Safe_containerINSt7__debug6vectorIxSaIxEEES3_NS_14_Safe_sequenceELb1EEaSERKS6_, symObjAddr: 0x9968, symBinAddr: 0x10000C0A4, symSize: 0x24 }
  - { offsetInCU: 0x2D6B2, offset: 0x2D6B2, size: 0x8, addend: 0x0, symName: __ZN9__gnu_cxxssIPNSt7__debug6vectorIxSaIxEEENSt9__cxx19986vectorIS4_SaIS4_EEEEEDTclL_ZNSt8__detail11__synth3wayEEcl7declvalIRT_EEcl7declvalISC_EEEERKNS_17__normal_iteratorISB_T0_EESI_, symObjAddr: 0x990C, symBinAddr: 0x10000C048, symSize: 0x48 }
  - { offsetInCU: 0x2D6BA, offset: 0x2D6BA, size: 0x8, addend: 0x0, symName: __ZSt11__addressofIKPNSt7__debug6vectorIxSaIxEEEEPT_RS6_, symObjAddr: 0x9954, symBinAddr: 0x10000C090, symSize: 0x14 }
  - { offsetInCU: 0x2D667, offset: 0x2D667, size: 0x8, addend: 0x0, symName: __ZN11__gnu_debug17__valid_range_auxIN9__gnu_cxx17__normal_iteratorIPNSt7__debug6vectorIxSaIxEEENSt9__cxx19986vectorIS6_SaIS6_EEEEEEEbT_SD_St18input_iterator_tag, symObjAddr: 0x9888, symBinAddr: 0x10000BFC4, symSize: 0x84 }
  - { offsetInCU: 0x2D66F, offset: 0x2D66F, size: 0x8, addend: 0x0, symName: __ZN9__gnu_cxxssIPNSt7__debug6vectorIxSaIxEEENSt9__cxx19986vectorIS4_SaIS4_EEEEEDTclL_ZNSt8__detail11__synth3wayEEcl7declvalIRT_EEcl7declvalISC_EEEERKNS_17__normal_iteratorISB_T0_EESI_, symObjAddr: 0x990C, symBinAddr: 0x10000C048, symSize: 0x48 }
  - { offsetInCU: 0x2D783, offset: 0x2D783, size: 0x8, addend: 0x0, symName: __ZN11__gnu_debug16__check_singularIN9__gnu_cxx17__normal_iteratorIPNSt7__debug6vectorIxSaIxEEENSt9__cxx19986vectorIS6_SaIS6_EEEEEEEbRKT_, symObjAddr: 0x9830, symBinAddr: 0x10000BF6C, symSize: 0x58 }
  - { offsetInCU: 0x2D78B, offset: 0x2D78B, size: 0x8, addend: 0x0, symName: __ZN11__gnu_debug17__valid_range_auxIN9__gnu_cxx17__normal_iteratorIPNSt7__debug6vectorIxSaIxEEENSt9__cxx19986vectorIS6_SaIS6_EEEEEEEbT_SD_St18input_iterator_tag, symObjAddr: 0x9888, symBinAddr: 0x10000BFC4, symSize: 0x84 }
  - { offsetInCU: 0x2D6BB, offset: 0x2D6BB, size: 0x8, addend: 0x0, symName: __ZSt11__addressofIKPxEPT_RS2_, symObjAddr: 0x981C, symBinAddr: 0x10000BF58, symSize: 0x14 }
  - { offsetInCU: 0x2D6C3, offset: 0x2D6C3, size: 0x8, addend: 0x0, symName: __ZN11__gnu_debug16__check_singularIN9__gnu_cxx17__normal_iteratorIPNSt7__debug6vectorIxSaIxEEENSt9__cxx19986vectorIS6_SaIS6_EEEEEEEbRKT_, symObjAddr: 0x9830, symBinAddr: 0x10000BF6C, symSize: 0x58 }
  - { offsetInCU: 0x2D7E1, offset: 0x2D7E1, size: 0x8, addend: 0x0, symName: __ZN9__gnu_cxxssIPxNSt9__cxx19986vectorIxSaIxEEEEEDTclL_ZNSt8__detail11__synth3wayEEcl7declvalIRT_EEcl7declvalIS8_EEEERKNS_17__normal_iteratorIS7_T0_EESE_, symObjAddr: 0x97D4, symBinAddr: 0x10000BF10, symSize: 0x48 }
  - { offsetInCU: 0x2D7E9, offset: 0x2D7E9, size: 0x8, addend: 0x0, symName: __ZSt11__addressofIKPxEPT_RS2_, symObjAddr: 0x981C, symBinAddr: 0x10000BF58, symSize: 0x14 }
  - { offsetInCU: 0x2D7D9, offset: 0x2D7D9, size: 0x8, addend: 0x0, symName: __ZN11__gnu_debug17__valid_range_auxIN9__gnu_cxx17__normal_iteratorIPxNSt9__cxx19986vectorIxSaIxEEEEEEEbT_S9_St18input_iterator_tag, symObjAddr: 0x9750, symBinAddr: 0x10000BE8C, symSize: 0x84 }
  - { offsetInCU: 0x2D7E1, offset: 0x2D7E1, size: 0x8, addend: 0x0, symName: __ZN9__gnu_cxxssIPxNSt9__cxx19986vectorIxSaIxEEEEEDTclL_ZNSt8__detail11__synth3wayEEcl7declvalIRT_EEcl7declvalIS8_EEEERKNS_17__normal_iteratorIS7_T0_EESE_, symObjAddr: 0x97D4, symBinAddr: 0x10000BF10, symSize: 0x48 }
  - { offsetInCU: 0x2D8B2, offset: 0x2D8B2, size: 0x8, addend: 0x0, symName: __ZN11__gnu_debug16__check_singularIN9__gnu_cxx17__normal_iteratorIPxNSt9__cxx19986vectorIxSaIxEEEEEEEbRKT_, symObjAddr: 0x96F8, symBinAddr: 0x10000BE34, symSize: 0x58 }
  - { offsetInCU: 0x2D8BA, offset: 0x2D8BA, size: 0x8, addend: 0x0, symName: __ZN11__gnu_debug17__valid_range_auxIN9__gnu_cxx17__normal_iteratorIPxNSt9__cxx19986vectorIxSaIxEEEEEEEbT_S9_St18input_iterator_tag, symObjAddr: 0x9750, symBinAddr: 0x10000BE8C, symSize: 0x84 }
  - { offsetInCU: 0x2D889, offset: 0x2D889, size: 0x8, addend: 0x0, symName: __ZSt19__relocate_object_aIxxSaIxEEvPT_PT0_RT1_, symObjAddr: 0x967C, symBinAddr: 0x10000BDB8, symSize: 0x7C }
  - { offsetInCU: 0x2D891, offset: 0x2D891, size: 0x8, addend: 0x0, symName: __ZN11__gnu_debug16__check_singularIN9__gnu_cxx17__normal_iteratorIPxNSt9__cxx19986vectorIxSaIxEEEEEEEbRKT_, symObjAddr: 0x96F8, symBinAddr: 0x10000BE34, symSize: 0x58 }
  - { offsetInCU: 0x2D909, offset: 0x2D909, size: 0x8, addend: 0x0, symName: __ZNK9__gnu_cxx17__normal_iteratorIPxvEdeEv, symObjAddr: 0x9664, symBinAddr: 0x10000BDA0, symSize: 0x18 }
  - { offsetInCU: 0x2D911, offset: 0x2D911, size: 0x8, addend: 0x0, symName: __ZSt19__relocate_object_aIxxSaIxEEvPT_PT0_RT1_, symObjAddr: 0x967C, symBinAddr: 0x10000BDB8, symSize: 0x7C }
  - { offsetInCU: 0x2D93A, offset: 0x2D93A, size: 0x8, addend: 0x0, symName: __ZN9__gnu_cxx17__normal_iteratorIPxvEppEv, symObjAddr: 0x963C, symBinAddr: 0x10000BD78, symSize: 0x28 }
  - { offsetInCU: 0x2D942, offset: 0x2D942, size: 0x8, addend: 0x0, symName: __ZNK9__gnu_cxx17__normal_iteratorIPxvEdeEv, symObjAddr: 0x9664, symBinAddr: 0x10000BDA0, symSize: 0x18 }
  - { offsetInCU: 0x2DA4E, offset: 0x2DA4E, size: 0x8, addend: 0x0, symName: __ZSt19__relocate_object_aINSt7__debug6vectorIxSaIxEEES3_SaIS3_EEvPT_PT0_RT1_, symObjAddr: 0x95C0, symBinAddr: 0x10000BCFC, symSize: 0x7C }
  - { offsetInCU: 0x2DA56, offset: 0x2DA56, size: 0x8, addend: 0x0, symName: __ZN9__gnu_cxx17__normal_iteratorIPxvEppEv, symObjAddr: 0x963C, symBinAddr: 0x10000BD78, symSize: 0x28 }
  - { offsetInCU: 0x2DA6D, offset: 0x2DA6D, size: 0x8, addend: 0x0, symName: __ZNSt15__new_allocatorINSt7__debug6vectorIxSaIxEEEE8allocateEmPKv, symObjAddr: 0x9520, symBinAddr: 0x10000BC5C, symSize: 0xA0 }
  - { offsetInCU: 0x2DA75, offset: 0x2DA75, size: 0x8, addend: 0x0, symName: __ZSt19__relocate_object_aINSt7__debug6vectorIxSaIxEEES3_SaIS3_EEvPT_PT0_RT1_, symObjAddr: 0x95C0, symBinAddr: 0x10000BCFC, symSize: 0x7C }
  - { offsetInCU: 0x2DB66, offset: 0x2DB66, size: 0x8, addend: 0x0, symName: __ZSt13__copy_move_aILb0EPKxPxET1_T0_S4_S3_, symObjAddr: 0x94C0, symBinAddr: 0x10000BBFC, symSize: 0x60 }
  - { offsetInCU: 0x2DB6E, offset: 0x2DB6E, size: 0x8, addend: 0x0, symName: __ZNSt15__new_allocatorINSt7__debug6vectorIxSaIxEEEE8allocateEmPKv, symObjAddr: 0x9520, symBinAddr: 0x10000BC5C, symSize: 0xA0 }
  - { offsetInCU: 0x2DBD3, offset: 0x2DBD3, size: 0x8, addend: 0x0, symName: __ZSt12__miter_baseIPKxET_S2_, symObjAddr: 0x94AC, symBinAddr: 0x10000BBE8, symSize: 0x14 }
  - { offsetInCU: 0x2DBDB, offset: 0x2DBDB, size: 0x8, addend: 0x0, symName: __ZSt13__copy_move_aILb0EPKxPxET1_T0_S4_S3_, symObjAddr: 0x94C0, symBinAddr: 0x10000BBFC, symSize: 0x60 }
  - { offsetInCU: 0x2DC5A, offset: 0x2DC5A, size: 0x8, addend: 0x0, symName: __ZN11__gnu_debug13__can_advanceIPxlEEbT_RKSt4pairIT0_NS_19_Distance_precisionEEi, symObjAddr: 0x9490, symBinAddr: 0x10000BBCC, symSize: 0x1C }
  - { offsetInCU: 0x2DC62, offset: 0x2DC62, size: 0x8, addend: 0x0, symName: __ZSt12__miter_baseIPKxET_S2_, symObjAddr: 0x94AC, symBinAddr: 0x10000BBE8, symSize: 0x14 }
  - { offsetInCU: 0x2DCDE, offset: 0x2DCDE, size: 0x8, addend: 0x0, symName: __ZN11__gnu_debug13__valid_rangeIPKxEEbT_S3_RNS_16_Distance_traitsIS3_NSt12__is_integerIS3_E6__typeEE6__typeE, symObjAddr: 0x9460, symBinAddr: 0x10000BB9C, symSize: 0x30 }
  - { offsetInCU: 0x2DCE6, offset: 0x2DCE6, size: 0x8, addend: 0x0, symName: __ZN11__gnu_debug13__can_advanceIPxlEEbT_RKSt4pairIT0_NS_19_Distance_precisionEEi, symObjAddr: 0x9490, symBinAddr: 0x10000BBCC, symSize: 0x1C }
  - { offsetInCU: 0x2DD12, offset: 0x2DD12, size: 0x8, addend: 0x0, symName: __ZSt10_ConstructIxJEEvPT_DpOT0_, symObjAddr: 0x9418, symBinAddr: 0x10000BB54, symSize: 0x48 }
  - { offsetInCU: 0x2DD1A, offset: 0x2DD1A, size: 0x8, addend: 0x0, symName: __ZN11__gnu_debug13__valid_rangeIPKxEEbT_S3_RNS_16_Distance_traitsIS3_NSt12__is_integerIS3_E6__typeEE6__typeE, symObjAddr: 0x9460, symBinAddr: 0x10000BB9C, symSize: 0x30 }
  - { offsetInCU: 0x2DDAA, offset: 0x2DDAA, size: 0x8, addend: 0x0, symName: __ZN11__gnu_debug12_Safe_vectorINSt7__debug6vectorIxSaIxEEENSt9__cxx19986vectorIxS3_EEEC2ERKS8_, symObjAddr: 0x93EC, symBinAddr: 0x10000BB28, symSize: 0x2C }
  - { offsetInCU: 0x2DDB2, offset: 0x2DDB2, size: 0x8, addend: 0x0, symName: __ZSt10_ConstructIxJEEvPT_DpOT0_, symObjAddr: 0x9418, symBinAddr: 0x10000BB54, symSize: 0x48 }
  - { offsetInCU: 0x2DDDC, offset: 0x2DDDC, size: 0x8, addend: 0x0, symName: __ZNSt9__cxx19986vectorIxSaIxEEC2ERKS2_, symObjAddr: 0x92F8, symBinAddr: 0x10000BA34, symSize: 0xF4 }
  - { offsetInCU: 0x2DDE4, offset: 0x2DDE4, size: 0x8, addend: 0x0, symName: __ZN11__gnu_debug12_Safe_vectorINSt7__debug6vectorIxSaIxEEENSt9__cxx19986vectorIxS3_EEEC2ERKS8_, symObjAddr: 0x93EC, symBinAddr: 0x10000BB28, symSize: 0x2C }
  - { offsetInCU: 0x2DFBD, offset: 0x2DFBD, size: 0x8, addend: 0x0, symName: __ZSt12construct_atINSt7__debug6vectorIxSaIxEEEJRKS3_EEDTgsnwcvPvLi0E_T_pispcl7declvalIT0_EEEEPS7_DpOS8_, symObjAddr: 0x9278, symBinAddr: 0x10000B9B4, symSize: 0x80 }
  - { offsetInCU: 0x2DFC5, offset: 0x2DFC5, size: 0x8, addend: 0x0, symName: __ZNSt9__cxx19986vectorIxSaIxEEC2ERKS2_, symObjAddr: 0x92F8, symBinAddr: 0x10000BA34, symSize: 0xF4 }
  - { offsetInCU: 0x2DFC9, offset: 0x2DFC9, size: 0x8, addend: 0x0, symName: __ZSt7forwardIRKNSt7__debug6vectorIxSaIxEEEEOT_RNSt16remove_referenceIS6_E4typeE, symObjAddr: 0x9264, symBinAddr: 0x10000B9A0, symSize: 0x14 }
  - { offsetInCU: 0x2DFD1, offset: 0x2DFD1, size: 0x8, addend: 0x0, symName: __ZSt12construct_atINSt7__debug6vectorIxSaIxEEEJRKS3_EEDTgsnwcvPvLi0E_T_pispcl7declvalIT0_EEEEPS7_DpOS8_, symObjAddr: 0x9278, symBinAddr: 0x10000B9B4, symSize: 0x80 }
  - { offsetInCU: 0x2E06D, offset: 0x2E06D, size: 0x8, addend: 0x0, symName: __ZSt9__fill_a1IPNSt7__debug6vectorIxSaIxEEES3_EN9__gnu_cxx11__enable_ifIXntsrSt11__is_scalarIT0_E7__valueEvE6__typeET_SC_RKS8_, symObjAddr: 0x9214, symBinAddr: 0x10000B950, symSize: 0x50 }
  - { offsetInCU: 0x2E075, offset: 0x2E075, size: 0x8, addend: 0x0, symName: __ZSt7forwardIRKNSt7__debug6vectorIxSaIxEEEEOT_RNSt16remove_referenceIS6_E4typeE, symObjAddr: 0x9264, symBinAddr: 0x10000B9A0, symSize: 0x14 }
  - { offsetInCU: 0x2E014, offset: 0x2E014, size: 0x8, addend: 0x0, symName: __ZNSt7__debug6vectorIxSaIxEEaSERKS2_, symObjAddr: 0x91B4, symBinAddr: 0x10000B8F0, symSize: 0x60 }
  - { offsetInCU: 0x2E01C, offset: 0x2E01C, size: 0x8, addend: 0x0, symName: __ZSt9__fill_a1IPNSt7__debug6vectorIxSaIxEEES3_EN9__gnu_cxx11__enable_ifIXntsrSt11__is_scalarIT0_E7__valueEvE6__typeET_SC_RKS8_, symObjAddr: 0x9214, symBinAddr: 0x10000B950, symSize: 0x50 }
  - { offsetInCU: 0x2E111, offset: 0x2E111, size: 0x8, addend: 0x0, symName: __ZN11__gnu_debug16_Error_formatter10_ParameterC1INSt7__debug6vectorIxSaIxEEEEERKPT_PKcNS0_12_Is_iteratorE, symObjAddr: 0x9104, symBinAddr: 0x10000B840, symSize: 0xB0 }
  - { offsetInCU: 0x2E119, offset: 0x2E119, size: 0x8, addend: 0x0, symName: __ZNSt7__debug6vectorIxSaIxEEaSERKS2_, symObjAddr: 0x91B4, symBinAddr: 0x10000B8F0, symSize: 0x60 }
  - { offsetInCU: 0x2E1BC, offset: 0x2E1BC, size: 0x8, addend: 0x0, symName: __ZN11__gnu_debug17__valid_range_auxIN9__gnu_cxx17__normal_iteratorIPNSt7__debug6vectorIxSaIxEEENSt9__cxx19986vectorIS6_SaIS6_EEEEEEEbT_SD_St26random_access_iterator_tag, symObjAddr: 0x907C, symBinAddr: 0x10000B7B8, symSize: 0x88 }
  - { offsetInCU: 0x2E1C4, offset: 0x2E1C4, size: 0x8, addend: 0x0, symName: __ZN11__gnu_debug16_Error_formatter10_ParameterC1INSt7__debug6vectorIxSaIxEEEEERKPT_PKcNS0_12_Is_iteratorE, symObjAddr: 0x9104, symBinAddr: 0x10000B840, symSize: 0xB0 }
  - { offsetInCU: 0x2E18B, offset: 0x2E18B, size: 0x8, addend: 0x0, symName: __ZNKSt8__detail10_Synth3wayclIPNSt7__debug6vectorIxSaIxEEES6_EEDaRKT_RKT0_, symObjAddr: 0x9020, symBinAddr: 0x10000B75C, symSize: 0x5C }
  - { offsetInCU: 0x2E193, offset: 0x2E193, size: 0x8, addend: 0x0, symName: __ZN11__gnu_debug17__valid_range_auxIN9__gnu_cxx17__normal_iteratorIPNSt7__debug6vectorIxSaIxEEENSt9__cxx19986vectorIS6_SaIS6_EEEEEEEbT_SD_St26random_access_iterator_tag, symObjAddr: 0x907C, symBinAddr: 0x10000B7B8, symSize: 0x88 }
  - { offsetInCU: 0x2E2DD, offset: 0x2E2DD, size: 0x8, addend: 0x0, symName: __ZSt9__fill_a1IPxxEN9__gnu_cxx11__enable_ifIXsrSt11__is_scalarIT0_E7__valueEvE6__typeET_S8_RKS4_, symObjAddr: 0x8FC8, symBinAddr: 0x10000B704, symSize: 0x58 }
  - { offsetInCU: 0x2E2E5, offset: 0x2E2E5, size: 0x8, addend: 0x0, symName: __ZNKSt8__detail10_Synth3wayclIPNSt7__debug6vectorIxSaIxEEES6_EEDaRKT_RKT0_, symObjAddr: 0x9020, symBinAddr: 0x10000B75C, symSize: 0x5C }
  - { offsetInCU: 0x2E389, offset: 0x2E389, size: 0x8, addend: 0x0, symName: __ZN11__gnu_debug16_Error_formatter10_ParameterC1IxEERKPT_PKcNS0_12_Is_iteratorE, symObjAddr: 0x8F18, symBinAddr: 0x10000B654, symSize: 0xB0 }
  - { offsetInCU: 0x2E391, offset: 0x2E391, size: 0x8, addend: 0x0, symName: __ZSt9__fill_a1IPxxEN9__gnu_cxx11__enable_ifIXsrSt11__is_scalarIT0_E7__valueEvE6__typeET_S8_RKS4_, symObjAddr: 0x8FC8, symBinAddr: 0x10000B704, symSize: 0x58 }
  - { offsetInCU: 0x2E430, offset: 0x2E430, size: 0x8, addend: 0x0, symName: __ZN11__gnu_debug17__valid_range_auxIN9__gnu_cxx17__normal_iteratorIPxNSt9__cxx19986vectorIxSaIxEEEEEEEbT_S9_St26random_access_iterator_tag, symObjAddr: 0x8E90, symBinAddr: 0x10000B5CC, symSize: 0x88 }
  - { offsetInCU: 0x2E438, offset: 0x2E438, size: 0x8, addend: 0x0, symName: __ZN11__gnu_debug16_Error_formatter10_ParameterC1IxEERKPT_PKcNS0_12_Is_iteratorE, symObjAddr: 0x8F18, symBinAddr: 0x10000B654, symSize: 0xB0 }
  - { offsetInCU: 0x2E40A, offset: 0x2E40A, size: 0x8, addend: 0x0, symName: __ZNKSt8__detail10_Synth3wayclIPxS2_EEDaRKT_RKT0_, symObjAddr: 0x8E34, symBinAddr: 0x10000B570, symSize: 0x5C }
  - { offsetInCU: 0x2E412, offset: 0x2E412, size: 0x8, addend: 0x0, symName: __ZN11__gnu_debug17__valid_range_auxIN9__gnu_cxx17__normal_iteratorIPxNSt9__cxx19986vectorIxSaIxEEEEEEEbT_S9_St26random_access_iterator_tag, symObjAddr: 0x8E90, symBinAddr: 0x10000B5CC, symSize: 0x88 }
  - { offsetInCU: 0x2E4AD, offset: 0x2E4AD, size: 0x8, addend: 0x0, symName: __ZNK9__gnu_cxx17__normal_iteratorIPxvE4baseEv, symObjAddr: 0x8E20, symBinAddr: 0x10000B55C, symSize: 0x14 }
  - { offsetInCU: 0x2E4B5, offset: 0x2E4B5, size: 0x8, addend: 0x0, symName: __ZNKSt8__detail10_Synth3wayclIPxS2_EEDaRKT_RKT0_, symObjAddr: 0x8E34, symBinAddr: 0x10000B570, symSize: 0x5C }
  - { offsetInCU: 0x2E5A8, offset: 0x2E5A8, size: 0x8, addend: 0x0, symName: __ZSt14__relocate_a_1IPxN9__gnu_cxx17__normal_iteratorIS0_vEESaIxEET0_T_S6_S5_RT1_, symObjAddr: 0x8D9C, symBinAddr: 0x10000B4D8, symSize: 0x84 }
  - { offsetInCU: 0x2E5B0, offset: 0x2E5B0, size: 0x8, addend: 0x0, symName: __ZNK9__gnu_cxx17__normal_iteratorIPxvE4baseEv, symObjAddr: 0x8E20, symBinAddr: 0x10000B55C, symSize: 0x14 }
  - { offsetInCU: 0x2E67D, offset: 0x2E67D, size: 0x8, addend: 0x0, symName: __ZSt14__relocate_a_1IPNSt7__debug6vectorIxSaIxEEES4_SaIS3_EET0_T_S7_S6_RT1_, symObjAddr: 0x8D18, symBinAddr: 0x10000B454, symSize: 0x84 }
  - { offsetInCU: 0x2E685, offset: 0x2E685, size: 0x8, addend: 0x0, symName: __ZSt14__relocate_a_1IPxN9__gnu_cxx17__normal_iteratorIS0_vEESaIxEET0_T_S6_S5_RT1_, symObjAddr: 0x8D9C, symBinAddr: 0x10000B4D8, symSize: 0x84 }
  - { offsetInCU: 0x2E6C4, offset: 0x2E6C4, size: 0x8, addend: 0x0, symName: __ZSt12__niter_baseIPNSt7__debug6vectorIxSaIxEEEET_S5_, symObjAddr: 0x8D04, symBinAddr: 0x10000B440, symSize: 0x14 }
  - { offsetInCU: 0x2E6CC, offset: 0x2E6CC, size: 0x8, addend: 0x0, symName: __ZSt14__relocate_a_1IPNSt7__debug6vectorIxSaIxEEES4_SaIS3_EET0_T_S7_S6_RT1_, symObjAddr: 0x8D18, symBinAddr: 0x10000B454, symSize: 0x84 }
  - { offsetInCU: 0x2E73C, offset: 0x2E73C, size: 0x8, addend: 0x0, symName: __ZNSt9__cxx199812_Vector_baseIxSaIxEE17_Vector_impl_dataC2EOS3_, symObjAddr: 0x8C94, symBinAddr: 0x10000B3D0, symSize: 0x70 }
  - { offsetInCU: 0x2E744, offset: 0x2E744, size: 0x8, addend: 0x0, symName: __ZSt12__niter_baseIPNSt7__debug6vectorIxSaIxEEEET_S5_, symObjAddr: 0x8D04, symBinAddr: 0x10000B440, symSize: 0x14 }
  - { offsetInCU: 0x2E801, offset: 0x2E801, size: 0x8, addend: 0x0, symName: __ZSt4moveIRNSt9__cxx199812_Vector_baseIxSaIxEE12_Vector_implEEONSt16remove_referenceIT_E4typeEOS7_, symObjAddr: 0x8C80, symBinAddr: 0x10000B3BC, symSize: 0x14 }
  - { offsetInCU: 0x2E809, offset: 0x2E809, size: 0x8, addend: 0x0, symName: __ZNSt9__cxx199812_Vector_baseIxSaIxEE17_Vector_impl_dataC2EOS3_, symObjAddr: 0x8C94, symBinAddr: 0x10000B3D0, symSize: 0x70 }
  - { offsetInCU: 0x2E7E5, offset: 0x2E7E5, size: 0x8, addend: 0x0, symName: __ZSt4copyIPKxPxET0_T_S4_S3_, symObjAddr: 0x8A78, symBinAddr: 0x10000B1B4, symSize: 0x208 }
  - { offsetInCU: 0x2E7ED, offset: 0x2E7ED, size: 0x8, addend: 0x0, symName: __ZSt4moveIRNSt9__cxx199812_Vector_baseIxSaIxEE12_Vector_implEEONSt16remove_referenceIT_E4typeEOS7_, symObjAddr: 0x8C80, symBinAddr: 0x10000B3BC, symSize: 0x14 }
  - { offsetInCU: 0x2E87C, offset: 0x2E87C, size: 0x8, addend: 0x0, symName: __ZNSt15__new_allocatorIxE8allocateEmPKv, symObjAddr: 0x89FC, symBinAddr: 0x10000B138, symSize: 0x7C }
  - { offsetInCU: 0x2E884, offset: 0x2E884, size: 0x8, addend: 0x0, symName: __ZSt4copyIPKxPxET0_T_S4_S3_, symObjAddr: 0x8A78, symBinAddr: 0x10000B1B4, symSize: 0x208 }
  - { offsetInCU: 0x2E90A, offset: 0x2E90A, size: 0x8, addend: 0x0, symName: __ZNSt27__uninitialized_default_n_1ILb1EE18__uninit_default_nIPxmEET_S3_T0_, symObjAddr: 0x8998, symBinAddr: 0x10000B0D4, symSize: 0x64 }
  - { offsetInCU: 0x2E912, offset: 0x2E912, size: 0x8, addend: 0x0, symName: __ZNSt15__new_allocatorIxE8allocateEmPKv, symObjAddr: 0x89FC, symBinAddr: 0x10000B138, symSize: 0x7C }
  - { offsetInCU: 0x2E99F, offset: 0x2E99F, size: 0x8, addend: 0x0, symName: __ZNSt27__uninitialized_default_n_1ILb0EE18__uninit_default_nIPxmEET_S3_T0_, symObjAddr: 0x8940, symBinAddr: 0x10000B07C, symSize: 0x58 }
  - { offsetInCU: 0x2E9A7, offset: 0x2E9A7, size: 0x8, addend: 0x0, symName: __ZNSt27__uninitialized_default_n_1ILb1EE18__uninit_default_nIPxmEET_S3_T0_, symObjAddr: 0x8998, symBinAddr: 0x10000B0D4, symSize: 0x64 }
  - { offsetInCU: 0x2EAA7, offset: 0x2EAA7, size: 0x8, addend: 0x0, symName: __ZSt8__fill_aIPNSt7__debug6vectorIxSaIxEEES3_EvT_S5_RKT0_, symObjAddr: 0x8910, symBinAddr: 0x10000B04C, symSize: 0x30 }
  - { offsetInCU: 0x2EAAF, offset: 0x2EAAF, size: 0x8, addend: 0x0, symName: __ZNSt27__uninitialized_default_n_1ILb0EE18__uninit_default_nIPxmEET_S3_T0_, symObjAddr: 0x8940, symBinAddr: 0x10000B07C, symSize: 0x58 }
  - { offsetInCU: 0x2EA94, offset: 0x2EA94, size: 0x8, addend: 0x0, symName: __ZN11__gnu_debug16_Error_formatter11_M_iteratorIPNSt7__debug6vectorIxSaIxEEEEERS0_RKT_PKc, symObjAddr: 0x887C, symBinAddr: 0x10000AFB8, symSize: 0x94 }
  - { offsetInCU: 0x2EA9C, offset: 0x2EA9C, size: 0x8, addend: 0x0, symName: __ZSt8__fill_aIPNSt7__debug6vectorIxSaIxEEES3_EvT_S5_RKT0_, symObjAddr: 0x8910, symBinAddr: 0x10000B04C, symSize: 0x30 }
  - { offsetInCU: 0x2EB91, offset: 0x2EB91, size: 0x8, addend: 0x0, symName: __ZN11__gnu_debug13__can_advanceIPNSt7__debug6vectorIxSaIxEEEmEEbT_T0_, symObjAddr: 0x8864, symBinAddr: 0x10000AFA0, symSize: 0x18 }
  - { offsetInCU: 0x2EB99, offset: 0x2EB99, size: 0x8, addend: 0x0, symName: __ZN11__gnu_debug16_Error_formatter11_M_iteratorIPNSt7__debug6vectorIxSaIxEEEEERS0_RKT_PKc, symObjAddr: 0x887C, symBinAddr: 0x10000AFB8, symSize: 0x94 }
  - { offsetInCU: 0x2EB5F, offset: 0x2EB5F, size: 0x8, addend: 0x0, symName: __ZNSt22__uninitialized_fill_nILb0EE15__uninit_fill_nIPNSt7__debug6vectorIxSaIxEEEmS5_EET_S7_T0_RKT1_, symObjAddr: 0x8838, symBinAddr: 0x10000AF74, symSize: 0x2C }
  - { offsetInCU: 0x2EB67, offset: 0x2EB67, size: 0x8, addend: 0x0, symName: __ZN11__gnu_debug13__can_advanceIPNSt7__debug6vectorIxSaIxEEEmEEbT_T0_, symObjAddr: 0x8864, symBinAddr: 0x10000AFA0, symSize: 0x18 }
  - { offsetInCU: 0x2EC9F, offset: 0x2EC9F, size: 0x8, addend: 0x0, symName: __ZSt10_ConstructINSt7__debug6vectorIxSaIxEEEJRKS3_EEvPT_DpOT0_, symObjAddr: 0x8790, symBinAddr: 0x10000AECC, symSize: 0xA8 }
  - { offsetInCU: 0x2ECA7, offset: 0x2ECA7, size: 0x8, addend: 0x0, symName: __ZNSt22__uninitialized_fill_nILb0EE15__uninit_fill_nIPNSt7__debug6vectorIxSaIxEEEmS5_EET_S7_T0_RKT1_, symObjAddr: 0x8838, symBinAddr: 0x10000AF74, symSize: 0x2C }
  - { offsetInCU: 0x2EC93, offset: 0x2EC93, size: 0x8, addend: 0x0, symName: __ZNSt7__debug6vectorIxSaIxEEC1ERKS2_, symObjAddr: 0x8714, symBinAddr: 0x10000AE50, symSize: 0x7C }
  - { offsetInCU: 0x2EC9B, offset: 0x2EC9B, size: 0x8, addend: 0x0, symName: __ZSt10_ConstructINSt7__debug6vectorIxSaIxEEEJRKS3_EEvPT_DpOT0_, symObjAddr: 0x8790, symBinAddr: 0x10000AECC, symSize: 0xA8 }
  - { offsetInCU: 0x2ED31, offset: 0x2ED31, size: 0x8, addend: 0x0, symName: __ZN11__gnu_debug15_Safe_containerINSt7__debug6vectorIxSaIxEEES3_NS_14_Safe_sequenceELb1EEC2ERKS6_, symObjAddr: 0x86EC, symBinAddr: 0x10000AE28, symSize: 0x28 }
  - { offsetInCU: 0x2ED39, offset: 0x2ED39, size: 0x8, addend: 0x0, symName: __ZNSt7__debug6vectorIxSaIxEEC1ERKS2_, symObjAddr: 0x8714, symBinAddr: 0x10000AE50, symSize: 0x7C }
  - { offsetInCU: 0x2ED96, offset: 0x2ED96, size: 0x8, addend: 0x0, symName: __ZN11__gnu_debug14_Safe_sequenceINSt7__debug6vectorIxSaIxEEEEC2ERKS5_, symObjAddr: 0x86C4, symBinAddr: 0x10000AE00, symSize: 0x28 }
  - { offsetInCU: 0x2ED9E, offset: 0x2ED9E, size: 0x8, addend: 0x0, symName: __ZN11__gnu_debug15_Safe_containerINSt7__debug6vectorIxSaIxEEES3_NS_14_Safe_sequenceELb1EEC2ERKS6_, symObjAddr: 0x86EC, symBinAddr: 0x10000AE28, symSize: 0x28 }
  - { offsetInCU: 0x2EED8, offset: 0x2EED8, size: 0x8, addend: 0x0, symName: __ZSt9__fill_a1IPNSt7__debug6vectorIxSaIxEEENSt9__cxx19986vectorIS3_SaIS3_EEES3_EvN9__gnu_cxx17__normal_iteratorIT_T0_EESD_RKT1_, symObjAddr: 0x8674, symBinAddr: 0x10000ADB0, symSize: 0x50 }
  - { offsetInCU: 0x2EEE0, offset: 0x2EEE0, size: 0x8, addend: 0x0, symName: __ZN11__gnu_debug14_Safe_sequenceINSt7__debug6vectorIxSaIxEEEEC2ERKS5_, symObjAddr: 0x86C4, symBinAddr: 0x10000AE00, symSize: 0x28 }
  - { offsetInCU: 0x2EF28, offset: 0x2EF28, size: 0x8, addend: 0x0, symName: __ZN11__gnu_debug16_Error_formatter10_ParameterC1IPNSt7__debug6vectorIxSaIxEEENSt9__cxx19986vectorIS6_SaIS6_EEEEERKN9__gnu_cxx17__normal_iteratorIT_T0_EEPKcNS0_12_Is_iteratorE, symObjAddr: 0x861C, symBinAddr: 0x10000AD58, symSize: 0x58 }
  - { offsetInCU: 0x2EF30, offset: 0x2EF30, size: 0x8, addend: 0x0, symName: __ZSt9__fill_a1IPNSt7__debug6vectorIxSaIxEEENSt9__cxx19986vectorIS3_SaIS3_EEES3_EvN9__gnu_cxx17__normal_iteratorIT_T0_EESD_RKT1_, symObjAddr: 0x8674, symBinAddr: 0x10000ADB0, symSize: 0x50 }
  - { offsetInCU: 0x2EF8D, offset: 0x2EF8D, size: 0x8, addend: 0x0, symName: __ZN11__gnu_debug17__valid_range_auxIN9__gnu_cxx17__normal_iteratorIPNSt7__debug6vectorIxSaIxEEENSt9__cxx19986vectorIS6_SaIS6_EEEEEEEbT_SD_St12__false_type, symObjAddr: 0x85E8, symBinAddr: 0x10000AD24, symSize: 0x34 }
  - { offsetInCU: 0x2EF95, offset: 0x2EF95, size: 0x8, addend: 0x0, symName: __ZN11__gnu_debug16_Error_formatter10_ParameterC1IPNSt7__debug6vectorIxSaIxEEENSt9__cxx19986vectorIS6_SaIS6_EEEEERKN9__gnu_cxx17__normal_iteratorIT_T0_EEPKcNS0_12_Is_iteratorE, symObjAddr: 0x861C, symBinAddr: 0x10000AD58, symSize: 0x58 }
  - { offsetInCU: 0x2EF7C, offset: 0x2EF7C, size: 0x8, addend: 0x0, symName: __ZNSt9__cxx199812_Vector_baseINSt7__debug6vectorIxSaIxEEESaIS4_EE17_M_create_storageEm, symObjAddr: 0x857C, symBinAddr: 0x10000ACB8, symSize: 0x6C }
  - { offsetInCU: 0x2EF84, offset: 0x2EF84, size: 0x8, addend: 0x0, symName: __ZN11__gnu_debug17__valid_range_auxIN9__gnu_cxx17__normal_iteratorIPNSt7__debug6vectorIxSaIxEEENSt9__cxx19986vectorIS6_SaIS6_EEEEEEEbT_SD_St12__false_type, symObjAddr: 0x85E8, symBinAddr: 0x10000AD24, symSize: 0x34 }
  - { offsetInCU: 0x2F046, offset: 0x2F046, size: 0x8, addend: 0x0, symName: __ZNSt9__cxx199812_Vector_baseINSt7__debug6vectorIxSaIxEEESaIS4_EE12_Vector_implC1ERKS5_, symObjAddr: 0x8530, symBinAddr: 0x10000AC6C, symSize: 0x4C }
  - { offsetInCU: 0x2F04E, offset: 0x2F04E, size: 0x8, addend: 0x0, symName: __ZNSt9__cxx199812_Vector_baseINSt7__debug6vectorIxSaIxEEESaIS4_EE17_M_create_storageEm, symObjAddr: 0x857C, symBinAddr: 0x10000ACB8, symSize: 0x6C }
  - { offsetInCU: 0x2F108, offset: 0x2F108, size: 0x8, addend: 0x0, symName: __ZSt8__fill_aIPxxEvT_S1_RKT0_, symObjAddr: 0x8500, symBinAddr: 0x10000AC3C, symSize: 0x30 }
  - { offsetInCU: 0x2F110, offset: 0x2F110, size: 0x8, addend: 0x0, symName: __ZNSt9__cxx199812_Vector_baseINSt7__debug6vectorIxSaIxEEESaIS4_EE12_Vector_implC1ERKS5_, symObjAddr: 0x8530, symBinAddr: 0x10000AC6C, symSize: 0x4C }
  - { offsetInCU: 0x2F13E, offset: 0x2F13E, size: 0x8, addend: 0x0, symName: __ZN11__gnu_debug16_Error_formatter11_M_iteratorIPxEERS0_RKT_PKc, symObjAddr: 0x846C, symBinAddr: 0x10000ABA8, symSize: 0x94 }
  - { offsetInCU: 0x2F146, offset: 0x2F146, size: 0x8, addend: 0x0, symName: __ZSt8__fill_aIPxxEvT_S1_RKT0_, symObjAddr: 0x8500, symBinAddr: 0x10000AC3C, symSize: 0x30 }
  - { offsetInCU: 0x2F20B, offset: 0x2F20B, size: 0x8, addend: 0x0, symName: __ZN11__gnu_debug13__can_advanceIPxmEEbT_T0_, symObjAddr: 0x8454, symBinAddr: 0x10000AB90, symSize: 0x18 }
  - { offsetInCU: 0x2F213, offset: 0x2F213, size: 0x8, addend: 0x0, symName: __ZN11__gnu_debug16_Error_formatter11_M_iteratorIPxEERS0_RKT_PKc, symObjAddr: 0x846C, symBinAddr: 0x10000ABA8, symSize: 0x94 }
  - { offsetInCU: 0x2F209, offset: 0x2F209, size: 0x8, addend: 0x0, symName: __ZNSt22__uninitialized_fill_nILb1EE15__uninit_fill_nIPxmxEET_S3_T0_RKT1_, symObjAddr: 0x8428, symBinAddr: 0x10000AB64, symSize: 0x2C }
  - { offsetInCU: 0x2F211, offset: 0x2F211, size: 0x8, addend: 0x0, symName: __ZN11__gnu_debug13__can_advanceIPxmEEbT_T0_, symObjAddr: 0x8454, symBinAddr: 0x10000AB90, symSize: 0x18 }
  - { offsetInCU: 0x2F35F, offset: 0x2F35F, size: 0x8, addend: 0x0, symName: __ZSt9__fill_a1IPxNSt9__cxx19986vectorIxSaIxEEExEvN9__gnu_cxx17__normal_iteratorIT_T0_EES9_RKT1_, symObjAddr: 0x83D8, symBinAddr: 0x10000AB14, symSize: 0x50 }
  - { offsetInCU: 0x2F367, offset: 0x2F367, size: 0x8, addend: 0x0, symName: __ZNSt22__uninitialized_fill_nILb1EE15__uninit_fill_nIPxmxEET_S3_T0_RKT1_, symObjAddr: 0x8428, symBinAddr: 0x10000AB64, symSize: 0x2C }
  - { offsetInCU: 0x2F40B, offset: 0x2F40B, size: 0x8, addend: 0x0, symName: __ZN11__gnu_debug16_Error_formatter10_ParameterC1IPxNSt9__cxx19986vectorIxSaIxEEEEERKN9__gnu_cxx17__normal_iteratorIT_T0_EEPKcNS0_12_Is_iteratorE, symObjAddr: 0x8380, symBinAddr: 0x10000AABC, symSize: 0x58 }
  - { offsetInCU: 0x2F413, offset: 0x2F413, size: 0x8, addend: 0x0, symName: __ZSt9__fill_a1IPxNSt9__cxx19986vectorIxSaIxEEExEvN9__gnu_cxx17__normal_iteratorIT_T0_EES9_RKT1_, symObjAddr: 0x83D8, symBinAddr: 0x10000AB14, symSize: 0x50 }
  - { offsetInCU: 0x2F470, offset: 0x2F470, size: 0x8, addend: 0x0, symName: __ZN11__gnu_debug17__valid_range_auxIN9__gnu_cxx17__normal_iteratorIPxNSt9__cxx19986vectorIxSaIxEEEEEEEbT_S9_St12__false_type, symObjAddr: 0x834C, symBinAddr: 0x10000AA88, symSize: 0x34 }
  - { offsetInCU: 0x2F478, offset: 0x2F478, size: 0x8, addend: 0x0, symName: __ZN11__gnu_debug16_Error_formatter10_ParameterC1IPxNSt9__cxx19986vectorIxSaIxEEEEERKN9__gnu_cxx17__normal_iteratorIT_T0_EEPKcNS0_12_Is_iteratorE, symObjAddr: 0x8380, symBinAddr: 0x10000AABC, symSize: 0x58 }
  - { offsetInCU: 0x2F52D, offset: 0x2F52D, size: 0x8, addend: 0x0, symName: __ZSt14__relocate_a_1IxxENSt9enable_ifIXsrSt24__is_bitwise_relocatableIT_vE5valueEPS2_E4typeES4_S4_S4_RSaIT0_E, symObjAddr: 0x8298, symBinAddr: 0x10000A9D4, symSize: 0xB4 }
  - { offsetInCU: 0x2F535, offset: 0x2F535, size: 0x8, addend: 0x0, symName: __ZN11__gnu_debug17__valid_range_auxIN9__gnu_cxx17__normal_iteratorIPxNSt9__cxx19986vectorIxSaIxEEEEEEEbT_S9_St12__false_type, symObjAddr: 0x834C, symBinAddr: 0x10000AA88, symSize: 0x34 }
  - { offsetInCU: 0x2F5BF, offset: 0x2F5BF, size: 0x8, addend: 0x0, symName: __ZN9__gnu_cxx17__normal_iteratorIPxvEC1ERKS1_, symObjAddr: 0x8270, symBinAddr: 0x10000A9AC, symSize: 0x28 }
  - { offsetInCU: 0x2F5C7, offset: 0x2F5C7, size: 0x8, addend: 0x0, symName: __ZSt14__relocate_a_1IxxENSt9enable_ifIXsrSt24__is_bitwise_relocatableIT_vE5valueEPS2_E4typeES4_S4_S4_RSaIT0_E, symObjAddr: 0x8298, symBinAddr: 0x10000A9D4, symSize: 0xB4 }
  - { offsetInCU: 0x2F60C, offset: 0x2F60C, size: 0x8, addend: 0x0, symName: __ZSt12__niter_baseIPxET_S1_, symObjAddr: 0x825C, symBinAddr: 0x10000A998, symSize: 0x14 }
  - { offsetInCU: 0x2F614, offset: 0x2F614, size: 0x8, addend: 0x0, symName: __ZN9__gnu_cxx17__normal_iteratorIPxvEC1ERKS1_, symObjAddr: 0x8270, symBinAddr: 0x10000A9AC, symSize: 0x28 }
  - { offsetInCU: 0x2F6FB, offset: 0x2F6FB, size: 0x8, addend: 0x0, symName: __ZSt12__relocate_aIPNSt7__debug6vectorIxSaIxEEES4_SaIS3_EET0_T_S7_S6_RT1_, symObjAddr: 0x8200, symBinAddr: 0x10000A93C, symSize: 0x5C }
  - { offsetInCU: 0x2F703, offset: 0x2F703, size: 0x8, addend: 0x0, symName: __ZSt12__niter_baseIPxET_S1_, symObjAddr: 0x825C, symBinAddr: 0x10000A998, symSize: 0x14 }
  - { offsetInCU: 0x2F6F3, offset: 0x2F6F3, size: 0x8, addend: 0x0, symName: __ZNKSt9__cxx199812_Vector_baseINSt7__debug6vectorIxSaIxEEESaIS4_EE19_M_get_Tp_allocatorEv, symObjAddr: 0x81EC, symBinAddr: 0x10000A928, symSize: 0x14 }
  - { offsetInCU: 0x2F6FB, offset: 0x2F6FB, size: 0x8, addend: 0x0, symName: __ZSt12__relocate_aIPNSt7__debug6vectorIxSaIxEEES4_SaIS3_EET0_T_S7_S6_RT1_, symObjAddr: 0x8200, symBinAddr: 0x10000A93C, symSize: 0x5C }
  - { offsetInCU: 0x2F724, offset: 0x2F724, size: 0x8, addend: 0x0, symName: __ZNSt9__cxx19986vectorINSt7__debug6vectorIxSaIxEEESaIS4_EE11_S_max_sizeERKS5_, symObjAddr: 0x8198, symBinAddr: 0x10000A8D4, symSize: 0x54 }
  - { offsetInCU: 0x2F72C, offset: 0x2F72C, size: 0x8, addend: 0x0, symName: __ZNKSt9__cxx199812_Vector_baseINSt7__debug6vectorIxSaIxEEESaIS4_EE19_M_get_Tp_allocatorEv, symObjAddr: 0x81EC, symBinAddr: 0x10000A928, symSize: 0x14 }
  - { offsetInCU: 0x2F852, offset: 0x2F852, size: 0x8, addend: 0x0, symName: __ZN11__gnu_debug12_Safe_vectorINSt7__debug6vectorIxSaIxEEENSt9__cxx19986vectorIxS3_EEEC2EOS8_, symObjAddr: 0x816C, symBinAddr: 0x10000A8A8, symSize: 0x2C }
  - { offsetInCU: 0x2F85A, offset: 0x2F85A, size: 0x8, addend: 0x0, symName: __ZNSt9__cxx19986vectorINSt7__debug6vectorIxSaIxEEESaIS4_EE11_S_max_sizeERKS5_, symObjAddr: 0x8198, symBinAddr: 0x10000A8D4, symSize: 0x54 }
  - { offsetInCU: 0x2F898, offset: 0x2F898, size: 0x8, addend: 0x0, symName: __ZNSt9__cxx199812_Vector_baseIxSaIxEE12_Vector_implC1EOS3_, symObjAddr: 0x8100, symBinAddr: 0x10000A83C, symSize: 0x6C }
  - { offsetInCU: 0x2F8A0, offset: 0x2F8A0, size: 0x8, addend: 0x0, symName: __ZN11__gnu_debug12_Safe_vectorINSt7__debug6vectorIxSaIxEEENSt9__cxx19986vectorIxS3_EEEC2EOS8_, symObjAddr: 0x816C, symBinAddr: 0x10000A8A8, symSize: 0x2C }
  - { offsetInCU: 0x2F904, offset: 0x2F904, size: 0x8, addend: 0x0, symName: __ZNSt20__uninitialized_copyILb1EE13__uninit_copyIPKxPxEET0_T_S6_S5_, symObjAddr: 0x80D4, symBinAddr: 0x10000A810, symSize: 0x2C }
  - { offsetInCU: 0x2F90C, offset: 0x2F90C, size: 0x8, addend: 0x0, symName: __ZNSt9__cxx199812_Vector_baseIxSaIxEE12_Vector_implC1EOS3_, symObjAddr: 0x8100, symBinAddr: 0x10000A83C, symSize: 0x6C }
  - { offsetInCU: 0x2F9CC, offset: 0x2F9CC, size: 0x8, addend: 0x0, symName: __ZSt10_ConstructIxJRKxEEvPT_DpOT0_, symObjAddr: 0x8064, symBinAddr: 0x10000A7A0, symSize: 0x70 }
  - { offsetInCU: 0x2F9D4, offset: 0x2F9D4, size: 0x8, addend: 0x0, symName: __ZNSt20__uninitialized_copyILb1EE13__uninit_copyIPKxPxEET0_T_S6_S5_, symObjAddr: 0x80D4, symBinAddr: 0x10000A810, symSize: 0x2C }
  - { offsetInCU: 0x2FA6E, offset: 0x2FA6E, size: 0x8, addend: 0x0, symName: __ZSt10destroy_atINSt7__debug6vectorIxSaIxEEEEvPT_, symObjAddr: 0x8044, symBinAddr: 0x10000A780, symSize: 0x20 }
  - { offsetInCU: 0x2FA76, offset: 0x2FA76, size: 0x8, addend: 0x0, symName: __ZSt10_ConstructIxJRKxEEvPT_DpOT0_, symObjAddr: 0x8064, symBinAddr: 0x10000A7A0, symSize: 0x70 }
  - { offsetInCU: 0x2FABE, offset: 0x2FABE, size: 0x8, addend: 0x0, symName: __ZSt25__uninitialized_default_nIPxmET_S1_T0_, symObjAddr: 0x7FF0, symBinAddr: 0x10000A72C, symSize: 0x54 }
  - { offsetInCU: 0x2FAC6, offset: 0x2FAC6, size: 0x8, addend: 0x0, symName: __ZSt10destroy_atINSt7__debug6vectorIxSaIxEEEEvPT_, symObjAddr: 0x8044, symBinAddr: 0x10000A780, symSize: 0x20 }
  - { offsetInCU: 0x2FBC5, offset: 0x2FBC5, size: 0x8, addend: 0x0, symName: __ZSt10__fill_n_aIPNSt7__debug6vectorIxSaIxEEEmS3_ET_S5_T0_RKT1_St26random_access_iterator_tag, symObjAddr: 0x7E9C, symBinAddr: 0x10000A5D8, symSize: 0x154 }
  - { offsetInCU: 0x2FBCD, offset: 0x2FBCD, size: 0x8, addend: 0x0, symName: __ZSt25__uninitialized_default_nIPxmET_S1_T0_, symObjAddr: 0x7FF0, symBinAddr: 0x10000A72C, symSize: 0x54 }
  - { offsetInCU: 0x2FCBE, offset: 0x2FCBE, size: 0x8, addend: 0x0, symName: __ZSt20uninitialized_fill_nIPNSt7__debug6vectorIxSaIxEEEmS3_ET_S5_T0_RKT1_, symObjAddr: 0x7E6C, symBinAddr: 0x10000A5A8, symSize: 0x30 }
  - { offsetInCU: 0x2FCC6, offset: 0x2FCC6, size: 0x8, addend: 0x0, symName: __ZSt10__fill_n_aIPNSt7__debug6vectorIxSaIxEEEmS3_ET_S5_T0_RKT1_St26random_access_iterator_tag, symObjAddr: 0x7E9C, symBinAddr: 0x10000A5D8, symSize: 0x154 }
  - { offsetInCU: 0x2FD61, offset: 0x2FD61, size: 0x8, addend: 0x0, symName: __ZSt18__do_uninit_fill_nIPNSt7__debug6vectorIxSaIxEEEmS3_ET_S5_T0_RKT1_, symObjAddr: 0x7DDC, symBinAddr: 0x10000A518, symSize: 0x90 }
  - { offsetInCU: 0x2FD69, offset: 0x2FD69, size: 0x8, addend: 0x0, symName: __ZSt20uninitialized_fill_nIPNSt7__debug6vectorIxSaIxEEEmS3_ET_S5_T0_RKT1_, symObjAddr: 0x7E6C, symBinAddr: 0x10000A5A8, symSize: 0x30 }
  - { offsetInCU: 0x2FEAE, offset: 0x2FEAE, size: 0x8, addend: 0x0, symName: __ZSt8__fill_aIN9__gnu_cxx17__normal_iteratorIPNSt7__debug6vectorIxSaIxEEENSt9__cxx19986vectorIS5_SaIS5_EEEEES5_EvT_SC_RKT0_, symObjAddr: 0x7DAC, symBinAddr: 0x10000A4E8, symSize: 0x30 }
  - { offsetInCU: 0x2FEB6, offset: 0x2FEB6, size: 0x8, addend: 0x0, symName: __ZSt18__do_uninit_fill_nIPNSt7__debug6vectorIxSaIxEEEmS3_ET_S5_T0_RKT1_, symObjAddr: 0x7DDC, symBinAddr: 0x10000A518, symSize: 0x90 }
  - { offsetInCU: 0x2FDC6, offset: 0x2FDC6, size: 0x8, addend: 0x0, symName: __ZN11__gnu_debug16_Error_formatter11_M_iteratorIN9__gnu_cxx17__normal_iteratorIPNSt7__debug6vectorIxSaIxEEENSt9__cxx19986vectorIS7_SaIS7_EEEEEEERS0_RKT_PKc, symObjAddr: 0x7D18, symBinAddr: 0x10000A454, symSize: 0x94 }
  - { offsetInCU: 0x2FDCE, offset: 0x2FDCE, size: 0x8, addend: 0x0, symName: __ZSt8__fill_aIN9__gnu_cxx17__normal_iteratorIPNSt7__debug6vectorIxSaIxEEENSt9__cxx19986vectorIS5_SaIS5_EEEEES5_EvT_SC_RKT0_, symObjAddr: 0x7DAC, symBinAddr: 0x10000A4E8, symSize: 0x30 }
  - { offsetInCU: 0x2FF85, offset: 0x2FF85, size: 0x8, addend: 0x0, symName: __ZN11__gnu_debug13__valid_rangeIN9__gnu_cxx17__normal_iteratorIPNSt7__debug6vectorIxSaIxEEENSt9__cxx19986vectorIS6_SaIS6_EEEEEEEbT_SD_, symObjAddr: 0x7CF0, symBinAddr: 0x10000A42C, symSize: 0x28 }
  - { offsetInCU: 0x2FF8D, offset: 0x2FF8D, size: 0x8, addend: 0x0, symName: __ZN11__gnu_debug16_Error_formatter11_M_iteratorIN9__gnu_cxx17__normal_iteratorIPNSt7__debug6vectorIxSaIxEEENSt9__cxx19986vectorIS7_SaIS7_EEEEEEERS0_RKT_PKc, symObjAddr: 0x7D18, symBinAddr: 0x10000A454, symSize: 0x94 }
  - { offsetInCU: 0x2FE94, offset: 0x2FE94, size: 0x8, addend: 0x0, symName: __ZNSt9__cxx199812_Vector_baseINSt7__debug6vectorIxSaIxEEESaIS4_EE17_Vector_impl_data12_M_copy_dataERKS7_, symObjAddr: 0x7CA8, symBinAddr: 0x10000A3E4, symSize: 0x48 }
  - { offsetInCU: 0x2FE9C, offset: 0x2FE9C, size: 0x8, addend: 0x0, symName: __ZN11__gnu_debug13__valid_rangeIN9__gnu_cxx17__normal_iteratorIPNSt7__debug6vectorIxSaIxEEENSt9__cxx19986vectorIS6_SaIS6_EEEEEEEbT_SD_, symObjAddr: 0x7CF0, symBinAddr: 0x10000A42C, symSize: 0x28 }
  - { offsetInCU: 0x2FED9, offset: 0x2FED9, size: 0x8, addend: 0x0, symName: __ZNSt9__cxx19986vectorINSt7__debug6vectorIxSaIxEEESaIS4_EE18_M_fill_initializeEmRKS4_, symObjAddr: 0x7C50, symBinAddr: 0x10000A38C, symSize: 0x58 }
  - { offsetInCU: 0x2FEE1, offset: 0x2FEE1, size: 0x8, addend: 0x0, symName: __ZNSt9__cxx199812_Vector_baseINSt7__debug6vectorIxSaIxEEESaIS4_EE17_Vector_impl_data12_M_copy_dataERKS7_, symObjAddr: 0x7CA8, symBinAddr: 0x10000A3E4, symSize: 0x48 }
  - { offsetInCU: 0x2FFBE, offset: 0x2FFBE, size: 0x8, addend: 0x0, symName: __ZNSt9__cxx199812_Vector_baseINSt7__debug6vectorIxSaIxEEESaIS4_EEC2EmRKS5_, symObjAddr: 0x7BFC, symBinAddr: 0x10000A338, symSize: 0x54 }
  - { offsetInCU: 0x2FFC6, offset: 0x2FFC6, size: 0x8, addend: 0x0, symName: __ZNSt9__cxx19986vectorINSt7__debug6vectorIxSaIxEEESaIS4_EE18_M_fill_initializeEmRKS4_, symObjAddr: 0x7C50, symBinAddr: 0x10000A38C, symSize: 0x58 }
  - { offsetInCU: 0x2FFBD, offset: 0x2FFBD, size: 0x8, addend: 0x0, symName: __ZNSt9__cxx19986vectorINSt7__debug6vectorIxSaIxEEESaIS4_EE17_S_check_init_lenEmRKS5_, symObjAddr: 0x7B88, symBinAddr: 0x10000A2C4, symSize: 0x74 }
  - { offsetInCU: 0x2FFC5, offset: 0x2FFC5, size: 0x8, addend: 0x0, symName: __ZNSt9__cxx199812_Vector_baseINSt7__debug6vectorIxSaIxEEESaIS4_EEC2EmRKS5_, symObjAddr: 0x7BFC, symBinAddr: 0x10000A338, symSize: 0x54 }
  - { offsetInCU: 0x30116, offset: 0x30116, size: 0x8, addend: 0x0, symName: __ZSt10__fill_n_aIPxmxET_S1_T0_RKT1_St26random_access_iterator_tag, symObjAddr: 0x7A4C, symBinAddr: 0x10000A188, symSize: 0x13C }
  - { offsetInCU: 0x3011E, offset: 0x3011E, size: 0x8, addend: 0x0, symName: __ZNSt9__cxx19986vectorINSt7__debug6vectorIxSaIxEEESaIS4_EE17_S_check_init_lenEmRKS5_, symObjAddr: 0x7B88, symBinAddr: 0x10000A2C4, symSize: 0x74 }
  - { offsetInCU: 0x3020F, offset: 0x3020F, size: 0x8, addend: 0x0, symName: __ZSt20uninitialized_fill_nIPxmxET_S1_T0_RKT1_, symObjAddr: 0x7A18, symBinAddr: 0x10000A154, symSize: 0x34 }
  - { offsetInCU: 0x30217, offset: 0x30217, size: 0x8, addend: 0x0, symName: __ZSt10__fill_n_aIPxmxET_S1_T0_RKT1_St26random_access_iterator_tag, symObjAddr: 0x7A4C, symBinAddr: 0x10000A188, symSize: 0x13C }
  - { offsetInCU: 0x302B2, offset: 0x302B2, size: 0x8, addend: 0x0, symName: __ZSt18__do_uninit_fill_nIPxmxET_S1_T0_RKT1_, symObjAddr: 0x79B8, symBinAddr: 0x10000A0F4, symSize: 0x60 }
  - { offsetInCU: 0x302BA, offset: 0x302BA, size: 0x8, addend: 0x0, symName: __ZSt20uninitialized_fill_nIPxmxET_S1_T0_RKT1_, symObjAddr: 0x7A18, symBinAddr: 0x10000A154, symSize: 0x34 }
  - { offsetInCU: 0x303CE, offset: 0x303CE, size: 0x8, addend: 0x0, symName: __ZSt8__fill_aIN9__gnu_cxx17__normal_iteratorIPxNSt9__cxx19986vectorIxSaIxEEEEExEvT_S8_RKT0_, symObjAddr: 0x7988, symBinAddr: 0x10000A0C4, symSize: 0x30 }
  - { offsetInCU: 0x303D6, offset: 0x303D6, size: 0x8, addend: 0x0, symName: __ZSt18__do_uninit_fill_nIPxmxET_S1_T0_RKT1_, symObjAddr: 0x79B8, symBinAddr: 0x10000A0F4, symSize: 0x60 }
  - { offsetInCU: 0x30360, offset: 0x30360, size: 0x8, addend: 0x0, symName: __ZN11__gnu_debug16_Error_formatter11_M_iteratorIN9__gnu_cxx17__normal_iteratorIPxNSt9__cxx19986vectorIxSaIxEEEEEEERS0_RKT_PKc, symObjAddr: 0x78F4, symBinAddr: 0x10000A030, symSize: 0x94 }
  - { offsetInCU: 0x30368, offset: 0x30368, size: 0x8, addend: 0x0, symName: __ZSt8__fill_aIN9__gnu_cxx17__normal_iteratorIPxNSt9__cxx19986vectorIxSaIxEEEEExEvT_S8_RKT0_, symObjAddr: 0x7988, symBinAddr: 0x10000A0C4, symSize: 0x30 }
  - { offsetInCU: 0x304BE, offset: 0x304BE, size: 0x8, addend: 0x0, symName: __ZN11__gnu_debug13__valid_rangeIN9__gnu_cxx17__normal_iteratorIPxNSt9__cxx19986vectorIxSaIxEEEEEEEbT_S9_, symObjAddr: 0x78CC, symBinAddr: 0x10000A008, symSize: 0x28 }
  - { offsetInCU: 0x304C6, offset: 0x304C6, size: 0x8, addend: 0x0, symName: __ZN11__gnu_debug16_Error_formatter11_M_iteratorIN9__gnu_cxx17__normal_iteratorIPxNSt9__cxx19986vectorIxSaIxEEEEEEERS0_RKT_PKc, symObjAddr: 0x78F4, symBinAddr: 0x10000A030, symSize: 0x94 }
  - { offsetInCU: 0x3042E, offset: 0x3042E, size: 0x8, addend: 0x0, symName: __ZNSt9__cxx199812_Vector_baseIxSaIxEE17_Vector_impl_data12_M_copy_dataERKS3_, symObjAddr: 0x7884, symBinAddr: 0x100009FC0, symSize: 0x48 }
  - { offsetInCU: 0x30436, offset: 0x30436, size: 0x8, addend: 0x0, symName: __ZN11__gnu_debug13__valid_rangeIN9__gnu_cxx17__normal_iteratorIPxNSt9__cxx19986vectorIxSaIxEEEEEEEbT_S9_, symObjAddr: 0x78CC, symBinAddr: 0x10000A008, symSize: 0x28 }
  - { offsetInCU: 0x30473, offset: 0x30473, size: 0x8, addend: 0x0, symName: __ZNSt9__cxx19986vectorIxSaIxEE18_M_fill_initializeEmRKx, symObjAddr: 0x782C, symBinAddr: 0x100009F68, symSize: 0x58 }
  - { offsetInCU: 0x3047B, offset: 0x3047B, size: 0x8, addend: 0x0, symName: __ZNSt9__cxx199812_Vector_baseIxSaIxEE17_Vector_impl_data12_M_copy_dataERKS3_, symObjAddr: 0x7884, symBinAddr: 0x100009FC0, symSize: 0x48 }
  - { offsetInCU: 0x30500, offset: 0x30500, size: 0x8, addend: 0x0, symName: __ZSt10destroy_atIxEvPT_, symObjAddr: 0x7818, symBinAddr: 0x100009F54, symSize: 0x14 }
  - { offsetInCU: 0x30508, offset: 0x30508, size: 0x8, addend: 0x0, symName: __ZNSt9__cxx19986vectorIxSaIxEE18_M_fill_initializeEmRKx, symObjAddr: 0x782C, symBinAddr: 0x100009F68, symSize: 0x58 }
  - { offsetInCU: 0x30592, offset: 0x30592, size: 0x8, addend: 0x0, symName: __ZSt12__relocate_aIPxS0_SaIxEET0_T_S3_S2_RT1_, symObjAddr: 0x77BC, symBinAddr: 0x100009EF8, symSize: 0x5C }
  - { offsetInCU: 0x3059A, offset: 0x3059A, size: 0x8, addend: 0x0, symName: __ZSt10destroy_atIxEvPT_, symObjAddr: 0x7818, symBinAddr: 0x100009F54, symSize: 0x14 }
  - { offsetInCU: 0x305B9, offset: 0x305B9, size: 0x8, addend: 0x0, symName: __ZNKSt9__cxx199812_Vector_baseIxSaIxEE19_M_get_Tp_allocatorEv, symObjAddr: 0x77A8, symBinAddr: 0x100009EE4, symSize: 0x14 }
  - { offsetInCU: 0x305C1, offset: 0x305C1, size: 0x8, addend: 0x0, symName: __ZSt12__relocate_aIPxS0_SaIxEET0_T_S3_S2_RT1_, symObjAddr: 0x77BC, symBinAddr: 0x100009EF8, symSize: 0x5C }
  - { offsetInCU: 0x305EA, offset: 0x305EA, size: 0x8, addend: 0x0, symName: __ZNK9__gnu_cxx17__normal_iteratorIPNSt7__debug6vectorIxSaIxEEENSt9__cxx19986vectorIS4_SaIS4_EEEEmiEl, symObjAddr: 0x7758, symBinAddr: 0x100009E94, symSize: 0x50 }
  - { offsetInCU: 0x305F2, offset: 0x305F2, size: 0x8, addend: 0x0, symName: __ZNKSt9__cxx199812_Vector_baseIxSaIxEE19_M_get_Tp_allocatorEv, symObjAddr: 0x77A8, symBinAddr: 0x100009EE4, symSize: 0x14 }
  - { offsetInCU: 0x3066D, offset: 0x3066D, size: 0x8, addend: 0x0, symName: __ZNSt9__cxx19986vectorINSt7__debug6vectorIxSaIxEEESaIS4_EE11_S_relocateEPS4_S7_S7_RS5_, symObjAddr: 0x7724, symBinAddr: 0x100009E60, symSize: 0x34 }
  - { offsetInCU: 0x30675, offset: 0x30675, size: 0x8, addend: 0x0, symName: __ZNK9__gnu_cxx17__normal_iteratorIPNSt7__debug6vectorIxSaIxEEENSt9__cxx19986vectorIS4_SaIS4_EEEEmiEl, symObjAddr: 0x7758, symBinAddr: 0x100009E94, symSize: 0x50 }
  - { offsetInCU: 0x306E0, offset: 0x306E0, size: 0x8, addend: 0x0, symName: __ZNSt9__cxx199812_Vector_baseINSt7__debug6vectorIxSaIxEEESaIS4_EE11_M_allocateEm, symObjAddr: 0x7638, symBinAddr: 0x100009D74, symSize: 0xEC }
  - { offsetInCU: 0x306E8, offset: 0x306E8, size: 0x8, addend: 0x0, symName: __ZNSt9__cxx19986vectorINSt7__debug6vectorIxSaIxEEESaIS4_EE11_S_relocateEPS4_S7_S7_RS5_, symObjAddr: 0x7724, symBinAddr: 0x100009E60, symSize: 0x34 }
  - { offsetInCU: 0x30790, offset: 0x30790, size: 0x8, addend: 0x0, symName: __ZNKSt9__cxx19986vectorINSt7__debug6vectorIxSaIxEEESaIS4_EE8max_sizeEv, symObjAddr: 0x7618, symBinAddr: 0x100009D54, symSize: 0x20 }
  - { offsetInCU: 0x30798, offset: 0x30798, size: 0x8, addend: 0x0, symName: __ZNSt9__cxx199812_Vector_baseINSt7__debug6vectorIxSaIxEEESaIS4_EE11_M_allocateEm, symObjAddr: 0x7638, symBinAddr: 0x100009D74, symSize: 0xEC }
  - { offsetInCU: 0x308A3, offset: 0x308A3, size: 0x8, addend: 0x0, symName: __ZSt12construct_atINSt7__debug6vectorIxSaIxEEEJS3_EEDTgsnwcvPvLi0E_T_pispcl7declvalIT0_EEEEPS5_DpOS6_, symObjAddr: 0x75CC, symBinAddr: 0x100009D08, symSize: 0x4C }
  - { offsetInCU: 0x308AB, offset: 0x308AB, size: 0x8, addend: 0x0, symName: __ZNKSt9__cxx19986vectorINSt7__debug6vectorIxSaIxEEESaIS4_EE8max_sizeEv, symObjAddr: 0x7618, symBinAddr: 0x100009D54, symSize: 0x20 }
  - { offsetInCU: 0x30877, offset: 0x30877, size: 0x8, addend: 0x0, symName: __ZNSt7__debug6vectorIxSaIxEEC1EOS2_, symObjAddr: 0x756C, symBinAddr: 0x100009CA8, symSize: 0x60 }
  - { offsetInCU: 0x3087F, offset: 0x3087F, size: 0x8, addend: 0x0, symName: __ZSt12construct_atINSt7__debug6vectorIxSaIxEEEJS3_EEDTgsnwcvPvLi0E_T_pispcl7declvalIT0_EEEEPS5_DpOS6_, symObjAddr: 0x75CC, symBinAddr: 0x100009D08, symSize: 0x4C }
  - { offsetInCU: 0x308DA, offset: 0x308DA, size: 0x8, addend: 0x0, symName: __ZNSt9__cxx19986vectorIxSaIxEEC2EOS2_, symObjAddr: 0x7544, symBinAddr: 0x100009C80, symSize: 0x28 }
  - { offsetInCU: 0x308E2, offset: 0x308E2, size: 0x8, addend: 0x0, symName: __ZNSt7__debug6vectorIxSaIxEEC1EOS2_, symObjAddr: 0x756C, symBinAddr: 0x100009CA8, symSize: 0x60 }
  - { offsetInCU: 0x30942, offset: 0x30942, size: 0x8, addend: 0x0, symName: __ZNSt9__cxx199812_Vector_baseIxSaIxEEC2EOS2_, symObjAddr: 0x751C, symBinAddr: 0x100009C58, symSize: 0x28 }
  - { offsetInCU: 0x3094A, offset: 0x3094A, size: 0x8, addend: 0x0, symName: __ZNSt9__cxx19986vectorIxSaIxEEC2EOS2_, symObjAddr: 0x7544, symBinAddr: 0x100009C80, symSize: 0x28 }
  - { offsetInCU: 0x309D7, offset: 0x309D7, size: 0x8, addend: 0x0, symName: __ZN11__gnu_debug15_Safe_containerINSt7__debug6vectorIxSaIxEEES3_NS_14_Safe_sequenceELb1EEC2EOS6_, symObjAddr: 0x74F4, symBinAddr: 0x100009C30, symSize: 0x28 }
  - { offsetInCU: 0x309DF, offset: 0x309DF, size: 0x8, addend: 0x0, symName: __ZNSt9__cxx199812_Vector_baseIxSaIxEEC2EOS2_, symObjAddr: 0x751C, symBinAddr: 0x100009C58, symSize: 0x28 }
  - { offsetInCU: 0x30A29, offset: 0x30A29, size: 0x8, addend: 0x0, symName: __ZN11__gnu_debug14_Safe_sequenceINSt7__debug6vectorIxSaIxEEEEC2EOS5_, symObjAddr: 0x74CC, symBinAddr: 0x100009C08, symSize: 0x28 }
  - { offsetInCU: 0x30A31, offset: 0x30A31, size: 0x8, addend: 0x0, symName: __ZN11__gnu_debug15_Safe_containerINSt7__debug6vectorIxSaIxEEES3_NS_14_Safe_sequenceELb1EEC2EOS6_, symObjAddr: 0x74F4, symBinAddr: 0x100009C30, symSize: 0x28 }
  - { offsetInCU: 0x30A89, offset: 0x30A89, size: 0x8, addend: 0x0, symName: __ZSt18uninitialized_copyIPKxPxET0_T_S4_S3_, symObjAddr: 0x7490, symBinAddr: 0x100009BCC, symSize: 0x3C }
  - { offsetInCU: 0x30A91, offset: 0x30A91, size: 0x8, addend: 0x0, symName: __ZN11__gnu_debug14_Safe_sequenceINSt7__debug6vectorIxSaIxEEEEC2EOS5_, symObjAddr: 0x74CC, symBinAddr: 0x100009C08, symSize: 0x28 }
  - { offsetInCU: 0x30B2C, offset: 0x30B2C, size: 0x8, addend: 0x0, symName: __ZSt16__do_uninit_copyIPKxPxET0_T_S4_S3_, symObjAddr: 0x742C, symBinAddr: 0x100009B68, symSize: 0x64 }
  - { offsetInCU: 0x30B34, offset: 0x30B34, size: 0x8, addend: 0x0, symName: __ZSt18uninitialized_copyIPKxPxET0_T_S4_S3_, symObjAddr: 0x7490, symBinAddr: 0x100009BCC, symSize: 0x3C }
  - { offsetInCU: 0x30B8C, offset: 0x30B8C, size: 0x8, addend: 0x0, symName: __ZNSt15__new_allocatorIxE10deallocateEPxm, symObjAddr: 0x73FC, symBinAddr: 0x100009B38, symSize: 0x30 }
  - { offsetInCU: 0x30B94, offset: 0x30B94, size: 0x8, addend: 0x0, symName: __ZSt16__do_uninit_copyIPKxPxET0_T_S4_S3_, symObjAddr: 0x742C, symBinAddr: 0x100009B68, symSize: 0x64 }
  - { offsetInCU: 0x30C12, offset: 0x30C12, size: 0x8, addend: 0x0, symName: __ZSt8_DestroyIxEvPT_, symObjAddr: 0x73DC, symBinAddr: 0x100009B18, symSize: 0x20 }
  - { offsetInCU: 0x30C1A, offset: 0x30C1A, size: 0x8, addend: 0x0, symName: __ZNSt15__new_allocatorIxE10deallocateEPxm, symObjAddr: 0x73FC, symBinAddr: 0x100009B38, symSize: 0x30 }
  - { offsetInCU: 0x30C64, offset: 0x30C64, size: 0x8, addend: 0x0, symName: __ZSt11__addressofIxEPT_RS0_, symObjAddr: 0x73C8, symBinAddr: 0x100009B04, symSize: 0x14 }
  - { offsetInCU: 0x30C6C, offset: 0x30C6C, size: 0x8, addend: 0x0, symName: __ZSt8_DestroyIxEvPT_, symObjAddr: 0x73DC, symBinAddr: 0x100009B18, symSize: 0x20 }
  - { offsetInCU: 0x30CD3, offset: 0x30CD3, size: 0x8, addend: 0x0, symName: __ZSt8_DestroyINSt7__debug6vectorIxSaIxEEEEvPT_, symObjAddr: 0x73A8, symBinAddr: 0x100009AE4, symSize: 0x20 }
  - { offsetInCU: 0x30CDB, offset: 0x30CDB, size: 0x8, addend: 0x0, symName: __ZSt11__addressofIxEPT_RS0_, symObjAddr: 0x73C8, symBinAddr: 0x100009B04, symSize: 0x14 }
  - { offsetInCU: 0x30D25, offset: 0x30D25, size: 0x8, addend: 0x0, symName: __ZSt11__addressofINSt7__debug6vectorIxSaIxEEEEPT_RS4_, symObjAddr: 0x7394, symBinAddr: 0x100009AD0, symSize: 0x14 }
  - { offsetInCU: 0x30D2D, offset: 0x30D2D, size: 0x8, addend: 0x0, symName: __ZSt8_DestroyINSt7__debug6vectorIxSaIxEEEEvPT_, symObjAddr: 0x73A8, symBinAddr: 0x100009AE4, symSize: 0x20 }
  - { offsetInCU: 0x30D05, offset: 0x30D05, size: 0x8, addend: 0x0, symName: __ZNSt15__new_allocatorINSt7__debug6vectorIxSaIxEEEE10deallocateEPS3_m, symObjAddr: 0x7358, symBinAddr: 0x100009A94, symSize: 0x3C }
  - { offsetInCU: 0x30D0D, offset: 0x30D0D, size: 0x8, addend: 0x0, symName: __ZSt11__addressofINSt7__debug6vectorIxSaIxEEEEPT_RS4_, symObjAddr: 0x7394, symBinAddr: 0x100009AD0, symSize: 0x14 }
  - { offsetInCU: 0x30DAC, offset: 0x30DAC, size: 0x8, addend: 0x0, symName: __ZN11__gnu_debug17__valid_range_auxIPKxEEbT_S3_St18input_iterator_tag, symObjAddr: 0x72E0, symBinAddr: 0x100009A1C, symSize: 0x78 }
  - { offsetInCU: 0x30DB4, offset: 0x30DB4, size: 0x8, addend: 0x0, symName: __ZNSt15__new_allocatorINSt7__debug6vectorIxSaIxEEEE10deallocateEPS3_m, symObjAddr: 0x7358, symBinAddr: 0x100009A94, symSize: 0x3C }
  - { offsetInCU: 0x30E23, offset: 0x30E23, size: 0x8, addend: 0x0, symName: __ZN11__gnu_debug16__check_singularIKxEEbRKPT_, symObjAddr: 0x72BC, symBinAddr: 0x1000099F8, symSize: 0x24 }
  - { offsetInCU: 0x30E2B, offset: 0x30E2B, size: 0x8, addend: 0x0, symName: __ZN11__gnu_debug17__valid_range_auxIPKxEEbT_S3_St18input_iterator_tag, symObjAddr: 0x72E0, symBinAddr: 0x100009A1C, symSize: 0x78 }
  - { offsetInCU: 0x30EA2, offset: 0x30EA2, size: 0x8, addend: 0x0, symName: __ZSt27__uninitialized_default_n_aIPxmxET_S1_T0_RSaIT1_E, symObjAddr: 0x7294, symBinAddr: 0x1000099D0, symSize: 0x28 }
  - { offsetInCU: 0x30EAA, offset: 0x30EAA, size: 0x8, addend: 0x0, symName: __ZN11__gnu_debug16__check_singularIKxEEbRKPT_, symObjAddr: 0x72BC, symBinAddr: 0x1000099F8, symSize: 0x24 }
  - { offsetInCU: 0x30EA1, offset: 0x30EA1, size: 0x8, addend: 0x0, symName: __ZNSt9__cxx199812_Vector_baseIxSaIxEE17_M_create_storageEm, symObjAddr: 0x7234, symBinAddr: 0x100009970, symSize: 0x60 }
  - { offsetInCU: 0x30EA9, offset: 0x30EA9, size: 0x8, addend: 0x0, symName: __ZSt27__uninitialized_default_n_aIPxmxET_S1_T0_RSaIT1_E, symObjAddr: 0x7294, symBinAddr: 0x1000099D0, symSize: 0x28 }
  - { offsetInCU: 0x30F13, offset: 0x30F13, size: 0x8, addend: 0x0, symName: __ZNSt9__cxx19986vectorIxSaIxEE11_S_max_sizeERKS1_, symObjAddr: 0x71F8, symBinAddr: 0x100009934, symSize: 0x3C }
  - { offsetInCU: 0x30F1B, offset: 0x30F1B, size: 0x8, addend: 0x0, symName: __ZNSt9__cxx199812_Vector_baseIxSaIxEE17_M_create_storageEm, symObjAddr: 0x7234, symBinAddr: 0x100009970, symSize: 0x60 }
  - { offsetInCU: 0x30FBC, offset: 0x30FBC, size: 0x8, addend: 0x0, symName: __ZNSt23mersenne_twister_engineIjLm32ELm624ELm397ELm31ELj2567483615ELm11ELj4294967295ELm7ELj2636928640ELm15ELj4022730752ELm18ELj1812433253EE11_M_gen_randEv, symObjAddr: 0x7038, symBinAddr: 0x100009774, symSize: 0x1C0 }
  - { offsetInCU: 0x30FC4, offset: 0x30FC4, size: 0x8, addend: 0x0, symName: __ZNSt9__cxx19986vectorIxSaIxEE11_S_max_sizeERKS1_, symObjAddr: 0x71F8, symBinAddr: 0x100009934, symSize: 0x3C }
  - { offsetInCU: 0x310CB, offset: 0x310CB, size: 0x8, addend: 0x0, symName: __ZNSt8__detail4_ModIjLj624ELj1ELj0ELb1ELb1EE6__calcEj, symObjAddr: 0x6FF0, symBinAddr: 0x10000972C, symSize: 0x48 }
  - { offsetInCU: 0x310D3, offset: 0x310D3, size: 0x8, addend: 0x0, symName: __ZNSt23mersenne_twister_engineIjLm32ELm624ELm397ELm31ELj2567483615ELm11ELj4294967295ELm7ELj2636928640ELm15ELj4022730752ELm18ELj1812433253EE11_M_gen_randEv, symObjAddr: 0x7038, symBinAddr: 0x100009774, symSize: 0x1C0 }
  - { offsetInCU: 0x31111, offset: 0x31111, size: 0x8, addend: 0x0, symName: __ZNSt8__detail4_ModIjLj0ELj1ELj0ELb1ELb0EE6__calcEj, symObjAddr: 0x6FD4, symBinAddr: 0x100009710, symSize: 0x1C }
  - { offsetInCU: 0x31119, offset: 0x31119, size: 0x8, addend: 0x0, symName: __ZNSt8__detail4_ModIjLj624ELj1ELj0ELb1ELb1EE6__calcEj, symObjAddr: 0x6FF0, symBinAddr: 0x10000972C, symSize: 0x48 }
  - { offsetInCU: 0x31157, offset: 0x31157, size: 0x8, addend: 0x0, symName: __ZNK9__gnu_cxx17__normal_iteratorIPKxNSt9__cxx19986vectorIxSaIxEEEE4baseEv, symObjAddr: 0x6FC0, symBinAddr: 0x1000096FC, symSize: 0x14 }
  - { offsetInCU: 0x3115F, offset: 0x3115F, size: 0x8, addend: 0x0, symName: __ZNSt8__detail4_ModIjLj0ELj1ELj0ELb1ELb0EE6__calcEj, symObjAddr: 0x6FD4, symBinAddr: 0x100009710, symSize: 0x1C }
  - { offsetInCU: 0x31200, offset: 0x31200, size: 0x8, addend: 0x0, symName: __ZN9__gnu_cxx17__normal_iteratorIPKxNSt9__cxx19986vectorIxSaIxEEEEC1ERKS2_, symObjAddr: 0x6F98, symBinAddr: 0x1000096D4, symSize: 0x28 }
  - { offsetInCU: 0x31208, offset: 0x31208, size: 0x8, addend: 0x0, symName: __ZNK9__gnu_cxx17__normal_iteratorIPKxNSt9__cxx19986vectorIxSaIxEEEE4baseEv, symObjAddr: 0x6FC0, symBinAddr: 0x1000096FC, symSize: 0x14 }
  - { offsetInCU: 0x313F6, offset: 0x313F6, size: 0x8, addend: 0x0, symName: __ZSt11__addressofIKN11__gnu_debug14_Safe_iteratorIN9__gnu_cxx17__normal_iteratorIPNSt7__debug6vectorIxSaIxEEENSt9__cxx19986vectorIS7_SaIS7_EEEEENS5_IS7_SB_EESt20forward_iterator_tagEEEPT_RSI_, symObjAddr: 0x6F84, symBinAddr: 0x1000096C0, symSize: 0x14 }
  - { offsetInCU: 0x313FE, offset: 0x313FE, size: 0x8, addend: 0x0, symName: __ZN9__gnu_cxx17__normal_iteratorIPKxNSt9__cxx19986vectorIxSaIxEEEEC1ERKS2_, symObjAddr: 0x6F98, symBinAddr: 0x1000096D4, symSize: 0x28 }
  - { offsetInCU: 0x3123E, offset: 0x3123E, size: 0x8, addend: 0x0, symName: __ZN11__gnu_debug18_BeforeBeginHelperINSt7__debug6vectorINS2_IxSaIxEEESaIS4_EEEE5_S_IsIN9__gnu_cxx17__normal_iteratorIPS4_NSt9__cxx19986vectorIS4_S5_EEEESt20forward_iterator_tagEEbRKNS_14_Safe_iteratorIT_S6_T0_EE, symObjAddr: 0x6F70, symBinAddr: 0x1000096AC, symSize: 0x14 }
  - { offsetInCU: 0x31246, offset: 0x31246, size: 0x8, addend: 0x0, symName: __ZSt11__addressofIKN11__gnu_debug14_Safe_iteratorIN9__gnu_cxx17__normal_iteratorIPNSt7__debug6vectorIxSaIxEEENSt9__cxx19986vectorIS7_SaIS7_EEEEENS5_IS7_SB_EESt20forward_iterator_tagEEEPT_RSI_, symObjAddr: 0x6F84, symBinAddr: 0x1000096C0, symSize: 0x14 }
  - { offsetInCU: 0x31284, offset: 0x31284, size: 0x8, addend: 0x0, symName: __ZNSt7__debug6vectorINS0_IxSaIxEEESaIS2_EE7_M_baseEv, symObjAddr: 0x6F58, symBinAddr: 0x100009694, symSize: 0x18 }
  - { offsetInCU: 0x3128C, offset: 0x3128C, size: 0x8, addend: 0x0, symName: __ZN11__gnu_debug18_BeforeBeginHelperINSt7__debug6vectorINS2_IxSaIxEEESaIS4_EEEE5_S_IsIN9__gnu_cxx17__normal_iteratorIPS4_NSt9__cxx19986vectorIS4_S5_EEEESt20forward_iterator_tagEEbRKNS_14_Safe_iteratorIT_S6_T0_EE, symObjAddr: 0x6F70, symBinAddr: 0x1000096AC, symSize: 0x14 }
  - { offsetInCU: 0x312B5, offset: 0x312B5, size: 0x8, addend: 0x0, symName: __ZN9__gnu_cxx17__normal_iteratorIPNSt7__debug6vectorIxSaIxEEENSt9__cxx19986vectorIS4_SaIS4_EEEEppEv, symObjAddr: 0x6F30, symBinAddr: 0x10000966C, symSize: 0x28 }
  - { offsetInCU: 0x312BD, offset: 0x312BD, size: 0x8, addend: 0x0, symName: __ZNSt7__debug6vectorINS0_IxSaIxEEESaIS2_EE7_M_baseEv, symObjAddr: 0x6F58, symBinAddr: 0x100009694, symSize: 0x18 }
  - { offsetInCU: 0x312E6, offset: 0x312E6, size: 0x8, addend: 0x0, symName: __ZN11__gnu_debug14_Safe_iteratorIN9__gnu_cxx17__normal_iteratorIPNSt7__debug6vectorIxSaIxEEENSt9__cxx19986vectorIS6_SaIS6_EEEEENS4_IS6_SA_EESt20forward_iterator_tagE4baseEv, symObjAddr: 0x6F1C, symBinAddr: 0x100009658, symSize: 0x14 }
  - { offsetInCU: 0x312EE, offset: 0x312EE, size: 0x8, addend: 0x0, symName: __ZN9__gnu_cxx17__normal_iteratorIPNSt7__debug6vectorIxSaIxEEENSt9__cxx19986vectorIS4_SaIS4_EEEEppEv, symObjAddr: 0x6F30, symBinAddr: 0x10000966C, symSize: 0x28 }
  - { offsetInCU: 0x31317, offset: 0x31317, size: 0x8, addend: 0x0, symName: __ZNK11__gnu_debug14_Safe_iteratorIN9__gnu_cxx17__normal_iteratorIPNSt7__debug6vectorIxSaIxEEENSt9__cxx19986vectorIS6_SaIS6_EEEEENS4_IS6_SA_EESt20forward_iterator_tagE16_M_incrementableEv, symObjAddr: 0x6EB8, symBinAddr: 0x1000095F4, symSize: 0x64 }
  - { offsetInCU: 0x3131F, offset: 0x3131F, size: 0x8, addend: 0x0, symName: __ZN11__gnu_debug14_Safe_iteratorIN9__gnu_cxx17__normal_iteratorIPNSt7__debug6vectorIxSaIxEEENSt9__cxx19986vectorIS6_SaIS6_EEEEENS4_IS6_SA_EESt20forward_iterator_tagE4baseEv, symObjAddr: 0x6F1C, symBinAddr: 0x100009658, symSize: 0x14 }
  - { offsetInCU: 0x31348, offset: 0x31348, size: 0x8, addend: 0x0, symName: __ZNK11__gnu_debug14_Safe_iteratorIN9__gnu_cxx17__normal_iteratorIPNSt7__debug6vectorIxSaIxEEENSt9__cxx19986vectorIS6_SaIS6_EEEEENS4_IS6_SA_EESt20forward_iterator_tagE11_M_is_beginEv, symObjAddr: 0x6E68, symBinAddr: 0x1000095A4, symSize: 0x50 }
  - { offsetInCU: 0x31350, offset: 0x31350, size: 0x8, addend: 0x0, symName: __ZNK11__gnu_debug14_Safe_iteratorIN9__gnu_cxx17__normal_iteratorIPNSt7__debug6vectorIxSaIxEEENSt9__cxx19986vectorIS6_SaIS6_EEEEENS4_IS6_SA_EESt20forward_iterator_tagE16_M_incrementableEv, symObjAddr: 0x6EB8, symBinAddr: 0x1000095F4, symSize: 0x64 }
  - { offsetInCU: 0x31379, offset: 0x31379, size: 0x8, addend: 0x0, symName: __ZNK11__gnu_debug14_Safe_iteratorIN9__gnu_cxx17__normal_iteratorIPNSt7__debug6vectorIxSaIxEEENSt9__cxx19986vectorIS6_SaIS6_EEEEENS4_IS6_SA_EESt20forward_iterator_tagE15_M_get_sequenceEv, symObjAddr: 0x6E50, symBinAddr: 0x10000958C, symSize: 0x18 }
  - { offsetInCU: 0x31381, offset: 0x31381, size: 0x8, addend: 0x0, symName: __ZNK11__gnu_debug14_Safe_iteratorIN9__gnu_cxx17__normal_iteratorIPNSt7__debug6vectorIxSaIxEEENSt9__cxx19986vectorIS6_SaIS6_EEEEENS4_IS6_SA_EESt20forward_iterator_tagE11_M_is_beginEv, symObjAddr: 0x6E68, symBinAddr: 0x1000095A4, symSize: 0x50 }
  - { offsetInCU: 0x315BA, offset: 0x315BA, size: 0x8, addend: 0x0, symName: __ZSt11__addressofIKN11__gnu_debug14_Safe_iteratorIN9__gnu_cxx17__normal_iteratorIPNSt7__debug6vectorIxSaIxEEENSt9__cxx19986vectorIS7_SaIS7_EEEEENS5_IS7_SB_EESt26random_access_iterator_tagEEEPT_RSI_, symObjAddr: 0x6E3C, symBinAddr: 0x100009578, symSize: 0x14 }
  - { offsetInCU: 0x315C2, offset: 0x315C2, size: 0x8, addend: 0x0, symName: __ZNK11__gnu_debug14_Safe_iteratorIN9__gnu_cxx17__normal_iteratorIPNSt7__debug6vectorIxSaIxEEENSt9__cxx19986vectorIS6_SaIS6_EEEEENS4_IS6_SA_EESt20forward_iterator_tagE15_M_get_sequenceEv, symObjAddr: 0x6E50, symBinAddr: 0x10000958C, symSize: 0x18 }
  - { offsetInCU: 0x314FA, offset: 0x314FA, size: 0x8, addend: 0x0, symName: __ZN11__gnu_debug14_Safe_iteratorIN9__gnu_cxx17__normal_iteratorIPNSt7__debug6vectorIxSaIxEEENSt9__cxx19986vectorIS6_SaIS6_EEEEENS4_IS6_SA_EESt20forward_iterator_tagEC2ESC_PKNS_19_Safe_sequence_baseE, symObjAddr: 0x6DE8, symBinAddr: 0x100009524, symSize: 0x54 }
  - { offsetInCU: 0x31502, offset: 0x31502, size: 0x8, addend: 0x0, symName: __ZSt11__addressofIKN11__gnu_debug14_Safe_iteratorIN9__gnu_cxx17__normal_iteratorIPNSt7__debug6vectorIxSaIxEEENSt9__cxx19986vectorIS7_SaIS7_EEEEENS5_IS7_SB_EESt26random_access_iterator_tagEEEPT_RSI_, symObjAddr: 0x6E3C, symBinAddr: 0x100009578, symSize: 0x14 }
  - { offsetInCU: 0x31523, offset: 0x31523, size: 0x8, addend: 0x0, symName: __ZSt6fill_nIPNSt7__debug6vectorIxSaIxEEEmS3_ET_S5_T0_RKT1_, symObjAddr: 0x6DA0, symBinAddr: 0x1000094DC, symSize: 0x48 }
  - { offsetInCU: 0x3152B, offset: 0x3152B, size: 0x8, addend: 0x0, symName: __ZN11__gnu_debug14_Safe_iteratorIN9__gnu_cxx17__normal_iteratorIPNSt7__debug6vectorIxSaIxEEENSt9__cxx19986vectorIS6_SaIS6_EEEEENS4_IS6_SA_EESt20forward_iterator_tagEC2ESC_PKNS_19_Safe_sequence_baseE, symObjAddr: 0x6DE8, symBinAddr: 0x100009524, symSize: 0x54 }
  - { offsetInCU: 0x3162F, offset: 0x3162F, size: 0x8, addend: 0x0, symName: __ZSt24__uninitialized_fill_n_aIPNSt7__debug6vectorIxSaIxEEEmS3_S3_ET_S5_T0_RKT1_RSaIT2_E, symObjAddr: 0x6D44, symBinAddr: 0x100009480, symSize: 0x5C }
  - { offsetInCU: 0x31637, offset: 0x31637, size: 0x8, addend: 0x0, symName: __ZSt6fill_nIPNSt7__debug6vectorIxSaIxEEEmS3_ET_S5_T0_RKT1_, symObjAddr: 0x6DA0, symBinAddr: 0x1000094DC, symSize: 0x48 }
  - { offsetInCU: 0x3173D, offset: 0x3173D, size: 0x8, addend: 0x0, symName: __ZSt4fillIN9__gnu_cxx17__normal_iteratorIPNSt7__debug6vectorIxSaIxEEENSt9__cxx19986vectorIS5_SaIS5_EEEEES5_EvT_SC_RKT0_, symObjAddr: 0x6C40, symBinAddr: 0x10000937C, symSize: 0x104 }
  - { offsetInCU: 0x31745, offset: 0x31745, size: 0x8, addend: 0x0, symName: __ZSt24__uninitialized_fill_n_aIPNSt7__debug6vectorIxSaIxEEEmS3_S3_ET_S5_T0_RKT1_RSaIT2_E, symObjAddr: 0x6D44, symBinAddr: 0x100009480, symSize: 0x5C }
  - { offsetInCU: 0x31694, offset: 0x31694, size: 0x8, addend: 0x0, symName: __ZNSt9__cxx199812_Vector_baseINSt7__debug6vectorIxSaIxEEESaIS4_EE17_Vector_impl_data12_M_swap_dataERS7_, symObjAddr: 0x6BF0, symBinAddr: 0x10000932C, symSize: 0x50 }
  - { offsetInCU: 0x3169C, offset: 0x3169C, size: 0x8, addend: 0x0, symName: __ZSt4fillIN9__gnu_cxx17__normal_iteratorIPNSt7__debug6vectorIxSaIxEEENSt9__cxx19986vectorIS5_SaIS5_EEEEES5_EvT_SC_RKT0_, symObjAddr: 0x6C40, symBinAddr: 0x10000937C, symSize: 0x104 }
  - { offsetInCU: 0x31786, offset: 0x31786, size: 0x8, addend: 0x0, symName: __ZNSt9__cxx19986vectorINSt7__debug6vectorIxSaIxEEESaIS4_EEC1EmRKS4_RKS5_, symObjAddr: 0x6B80, symBinAddr: 0x1000092BC, symSize: 0x70 }
  - { offsetInCU: 0x3178E, offset: 0x3178E, size: 0x8, addend: 0x0, symName: __ZNSt9__cxx199812_Vector_baseINSt7__debug6vectorIxSaIxEEESaIS4_EE17_Vector_impl_data12_M_swap_dataERS7_, symObjAddr: 0x6BF0, symBinAddr: 0x10000932C, symSize: 0x50 }
  - { offsetInCU: 0x31794, offset: 0x31794, size: 0x8, addend: 0x0, symName: __ZNKSt9__cxx19986vectorINSt7__debug6vectorIxSaIxEEESaIS4_EE8capacityEv, symObjAddr: 0x6B44, symBinAddr: 0x100009280, symSize: 0x3C }
  - { offsetInCU: 0x3179C, offset: 0x3179C, size: 0x8, addend: 0x0, symName: __ZNSt9__cxx19986vectorINSt7__debug6vectorIxSaIxEEESaIS4_EEC1EmRKS4_RKS5_, symObjAddr: 0x6B80, symBinAddr: 0x1000092BC, symSize: 0x70 }
  - { offsetInCU: 0x31822, offset: 0x31822, size: 0x8, addend: 0x0, symName: __ZSt6fill_nIPxmxET_S1_T0_RKT1_, symObjAddr: 0x6AFC, symBinAddr: 0x100009238, symSize: 0x48 }
  - { offsetInCU: 0x3182A, offset: 0x3182A, size: 0x8, addend: 0x0, symName: __ZNKSt9__cxx19986vectorINSt7__debug6vectorIxSaIxEEESaIS4_EE8capacityEv, symObjAddr: 0x6B44, symBinAddr: 0x100009280, symSize: 0x3C }
  - { offsetInCU: 0x31916, offset: 0x31916, size: 0x8, addend: 0x0, symName: __ZSt24__uninitialized_fill_n_aIPxmxxET_S1_T0_RKT1_RSaIT2_E, symObjAddr: 0x6AA0, symBinAddr: 0x1000091DC, symSize: 0x5C }
  - { offsetInCU: 0x3191E, offset: 0x3191E, size: 0x8, addend: 0x0, symName: __ZSt6fill_nIPxmxET_S1_T0_RKT1_, symObjAddr: 0x6AFC, symBinAddr: 0x100009238, symSize: 0x48 }
  - { offsetInCU: 0x31A0B, offset: 0x31A0B, size: 0x8, addend: 0x0, symName: __ZSt4fillIN9__gnu_cxx17__normal_iteratorIPxNSt9__cxx19986vectorIxSaIxEEEEExEvT_S8_RKT0_, symObjAddr: 0x699C, symBinAddr: 0x1000090D8, symSize: 0x104 }
  - { offsetInCU: 0x31A13, offset: 0x31A13, size: 0x8, addend: 0x0, symName: __ZSt24__uninitialized_fill_n_aIPxmxxET_S1_T0_RKT1_RSaIT2_E, symObjAddr: 0x6AA0, symBinAddr: 0x1000091DC, symSize: 0x5C }
  - { offsetInCU: 0x319DB, offset: 0x319DB, size: 0x8, addend: 0x0, symName: __ZNSt9__cxx199812_Vector_baseIxSaIxEE17_Vector_impl_data12_M_swap_dataERS3_, symObjAddr: 0x694C, symBinAddr: 0x100009088, symSize: 0x50 }
  - { offsetInCU: 0x319E3, offset: 0x319E3, size: 0x8, addend: 0x0, symName: __ZSt4fillIN9__gnu_cxx17__normal_iteratorIPxNSt9__cxx19986vectorIxSaIxEEEEExEvT_S8_RKT0_, symObjAddr: 0x699C, symBinAddr: 0x1000090D8, symSize: 0x104 }
  - { offsetInCU: 0x31AAF, offset: 0x31AAF, size: 0x8, addend: 0x0, symName: __ZNSt9__cxx19986vectorIxSaIxEEC1EmRKxRKS1_, symObjAddr: 0x68DC, symBinAddr: 0x100009018, symSize: 0x70 }
  - { offsetInCU: 0x31AB7, offset: 0x31AB7, size: 0x8, addend: 0x0, symName: __ZNSt9__cxx199812_Vector_baseIxSaIxEE17_Vector_impl_data12_M_swap_dataERS3_, symObjAddr: 0x694C, symBinAddr: 0x100009088, symSize: 0x50 }
  - { offsetInCU: 0x31B18, offset: 0x31B18, size: 0x8, addend: 0x0, symName: __ZNSt9__cxx19986vectorIxSaIxEE11_S_relocateEPxS3_S3_RS1_, symObjAddr: 0x68A8, symBinAddr: 0x100008FE4, symSize: 0x34 }
  - { offsetInCU: 0x31B20, offset: 0x31B20, size: 0x8, addend: 0x0, symName: __ZNSt9__cxx19986vectorIxSaIxEEC1EmRKxRKS1_, symObjAddr: 0x68DC, symBinAddr: 0x100009018, symSize: 0x70 }
  - { offsetInCU: 0x31B8B, offset: 0x31B8B, size: 0x8, addend: 0x0, symName: __ZNKSt9__cxx19986vectorIxSaIxEE8max_sizeEv, symObjAddr: 0x6888, symBinAddr: 0x100008FC4, symSize: 0x20 }
  - { offsetInCU: 0x31B93, offset: 0x31B93, size: 0x8, addend: 0x0, symName: __ZNSt9__cxx19986vectorIxSaIxEE11_S_relocateEPxS3_S3_RS1_, symObjAddr: 0x68A8, symBinAddr: 0x100008FE4, symSize: 0x34 }
  - { offsetInCU: 0x31C3E, offset: 0x31C3E, size: 0x8, addend: 0x0, symName: __ZSt12construct_atIxJRKxEEDTgsnwcvPvLi0E_T_pispcl7declvalIT0_EEEEPS3_DpOS4_, symObjAddr: 0x6840, symBinAddr: 0x100008F7C, symSize: 0x48 }
  - { offsetInCU: 0x31C46, offset: 0x31C46, size: 0x8, addend: 0x0, symName: __ZNKSt9__cxx19986vectorIxSaIxEE8max_sizeEv, symObjAddr: 0x6888, symBinAddr: 0x100008FC4, symSize: 0x20 }
  - { offsetInCU: 0x31C82, offset: 0x31C82, size: 0x8, addend: 0x0, symName: __ZSt7forwardIRKxEOT_RNSt16remove_referenceIS2_E4typeE, symObjAddr: 0x682C, symBinAddr: 0x100008F68, symSize: 0x14 }
  - { offsetInCU: 0x31C8A, offset: 0x31C8A, size: 0x8, addend: 0x0, symName: __ZSt12construct_atIxJRKxEEDTgsnwcvPvLi0E_T_pispcl7declvalIT0_EEEEPS3_DpOS4_, symObjAddr: 0x6840, symBinAddr: 0x100008F7C, symSize: 0x48 }
  - { offsetInCU: 0x31C80, offset: 0x31C80, size: 0x8, addend: 0x0, symName: __ZNKSt9__cxx19986vectorIxSaIxEE8capacityEv, symObjAddr: 0x6804, symBinAddr: 0x100008F40, symSize: 0x28 }
  - { offsetInCU: 0x31C88, offset: 0x31C88, size: 0x8, addend: 0x0, symName: __ZSt7forwardIRKxEOT_RNSt16remove_referenceIS2_E4typeE, symObjAddr: 0x682C, symBinAddr: 0x100008F68, symSize: 0x14 }
  - { offsetInCU: 0x31CB1, offset: 0x31CB1, size: 0x8, addend: 0x0, symName: __ZNSt9__cxx19986vectorINSt7__debug6vectorIxSaIxEEESaIS4_EE4backEv, symObjAddr: 0x675C, symBinAddr: 0x100008E98, symSize: 0xA8 }
  - { offsetInCU: 0x31CB9, offset: 0x31CB9, size: 0x8, addend: 0x0, symName: __ZNKSt9__cxx19986vectorIxSaIxEE8capacityEv, symObjAddr: 0x6804, symBinAddr: 0x100008F40, symSize: 0x28 }
  - { offsetInCU: 0x31D19, offset: 0x31D19, size: 0x8, addend: 0x0, symName: __ZNSt9__cxx19986vectorINSt7__debug6vectorIxSaIxEEESaIS4_EE17_M_realloc_insertIJS4_EEEvN9__gnu_cxx17__normal_iteratorIPS4_S6_EEDpOT_, symObjAddr: 0x659C, symBinAddr: 0x100008CD8, symSize: 0x1C0 }
  - { offsetInCU: 0x31D21, offset: 0x31D21, size: 0x8, addend: 0x0, symName: __ZNSt9__cxx19986vectorINSt7__debug6vectorIxSaIxEEESaIS4_EE4backEv, symObjAddr: 0x675C, symBinAddr: 0x100008E98, symSize: 0xA8 }
  - { offsetInCU: 0x31F77, offset: 0x31F77, size: 0x8, addend: 0x0, symName: __ZN9__gnu_cxxmiIPNSt7__debug6vectorIxSaIxEEENSt9__cxx19986vectorIS4_SaIS4_EEEEENS_17__normal_iteratorIT_T0_E15difference_typeERKSD_SG_, symObjAddr: 0x6548, symBinAddr: 0x100008C84, symSize: 0x54 }
  - { offsetInCU: 0x31F7F, offset: 0x31F7F, size: 0x8, addend: 0x0, symName: __ZNSt9__cxx19986vectorINSt7__debug6vectorIxSaIxEEESaIS4_EE17_M_realloc_insertIJS4_EEEvN9__gnu_cxx17__normal_iteratorIPS4_S6_EEDpOT_, symObjAddr: 0x659C, symBinAddr: 0x100008CD8, symSize: 0x1C0 }
  - { offsetInCU: 0x31EB6, offset: 0x31EB6, size: 0x8, addend: 0x0, symName: __ZNKSt9__cxx19986vectorINSt7__debug6vectorIxSaIxEEESaIS4_EE12_M_check_lenEmPKc, symObjAddr: 0x6478, symBinAddr: 0x100008BB4, symSize: 0xD0 }
  - { offsetInCU: 0x31EBE, offset: 0x31EBE, size: 0x8, addend: 0x0, symName: __ZN9__gnu_cxxmiIPNSt7__debug6vectorIxSaIxEEENSt9__cxx19986vectorIS4_SaIS4_EEEEENS_17__normal_iteratorIT_T0_E15difference_typeERKSD_SG_, symObjAddr: 0x6548, symBinAddr: 0x100008C84, symSize: 0x54 }
  - { offsetInCU: 0x31F82, offset: 0x31F82, size: 0x8, addend: 0x0, symName: __ZNKSt7__debug6vectorINS0_IxSaIxEEESaIS2_EE8capacityEv, symObjAddr: 0x6458, symBinAddr: 0x100008B94, symSize: 0x20 }
  - { offsetInCU: 0x31F8A, offset: 0x31F8A, size: 0x8, addend: 0x0, symName: __ZNKSt9__cxx19986vectorINSt7__debug6vectorIxSaIxEEESaIS4_EE12_M_check_lenEmPKc, symObjAddr: 0x6478, symBinAddr: 0x100008BB4, symSize: 0xD0 }
  - { offsetInCU: 0x3203C, offset: 0x3203C, size: 0x8, addend: 0x0, symName: __ZSt22__uninitialized_copy_aIPKxPxxET0_T_S4_S3_RSaIT1_E, symObjAddr: 0x63FC, symBinAddr: 0x100008B38, symSize: 0x5C }
  - { offsetInCU: 0x32044, offset: 0x32044, size: 0x8, addend: 0x0, symName: __ZNKSt7__debug6vectorINS0_IxSaIxEEESaIS2_EE8capacityEv, symObjAddr: 0x6458, symBinAddr: 0x100008B94, symSize: 0x20 }
  - { offsetInCU: 0x32052, offset: 0x32052, size: 0x8, addend: 0x0, symName: __ZNSt9__cxx199812_Vector_baseIxSaIxEE11_M_allocateEm, symObjAddr: 0x6334, symBinAddr: 0x100008A70, symSize: 0xC8 }
  - { offsetInCU: 0x3205A, offset: 0x3205A, size: 0x8, addend: 0x0, symName: __ZSt22__uninitialized_copy_aIPKxPxxET0_T_S4_S3_RSaIT1_E, symObjAddr: 0x63FC, symBinAddr: 0x100008B38, symSize: 0x5C }
  - { offsetInCU: 0x32102, offset: 0x32102, size: 0x8, addend: 0x0, symName: __ZNKSt16initializer_listIxE4sizeEv, symObjAddr: 0x631C, symBinAddr: 0x100008A58, symSize: 0x18 }
  - { offsetInCU: 0x3210A, offset: 0x3210A, size: 0x8, addend: 0x0, symName: __ZNSt9__cxx199812_Vector_baseIxSaIxEE11_M_allocateEm, symObjAddr: 0x6334, symBinAddr: 0x100008A70, symSize: 0xC8 }
  - { offsetInCU: 0x3219B, offset: 0x3219B, size: 0x8, addend: 0x0, symName: __ZNSt9__cxx199812_Vector_baseIxSaIxEE12_Vector_implC1ERKS1_, symObjAddr: 0x62D0, symBinAddr: 0x100008A0C, symSize: 0x4C }
  - { offsetInCU: 0x321A3, offset: 0x321A3, size: 0x8, addend: 0x0, symName: __ZNKSt16initializer_listIxE4sizeEv, symObjAddr: 0x631C, symBinAddr: 0x100008A58, symSize: 0x18 }
  - { offsetInCU: 0x3239E, offset: 0x3239E, size: 0x8, addend: 0x0, symName: __ZSt11__addressofIKN11__gnu_debug14_Safe_iteratorIN9__gnu_cxx17__normal_iteratorIPxNSt9__cxx19986vectorIxSaIxEEEEENSt7__debug6vectorIxS7_EESt20forward_iterator_tagEEEPT_RSG_, symObjAddr: 0x62BC, symBinAddr: 0x1000089F8, symSize: 0x14 }
  - { offsetInCU: 0x323A6, offset: 0x323A6, size: 0x8, addend: 0x0, symName: __ZNSt9__cxx199812_Vector_baseIxSaIxEE12_Vector_implC1ERKS1_, symObjAddr: 0x62D0, symBinAddr: 0x100008A0C, symSize: 0x4C }
  - { offsetInCU: 0x32252, offset: 0x32252, size: 0x8, addend: 0x0, symName: __ZN11__gnu_debug18_BeforeBeginHelperINSt7__debug6vectorIxSaIxEEEE5_S_IsIN9__gnu_cxx17__normal_iteratorIPxNSt9__cxx19986vectorIxS3_EEEESt20forward_iterator_tagEEbRKNS_14_Safe_iteratorIT_S4_T0_EE, symObjAddr: 0x62A8, symBinAddr: 0x1000089E4, symSize: 0x14 }
  - { offsetInCU: 0x3225A, offset: 0x3225A, size: 0x8, addend: 0x0, symName: __ZSt11__addressofIKN11__gnu_debug14_Safe_iteratorIN9__gnu_cxx17__normal_iteratorIPxNSt9__cxx19986vectorIxSaIxEEEEENSt7__debug6vectorIxS7_EESt20forward_iterator_tagEEEPT_RSG_, symObjAddr: 0x62BC, symBinAddr: 0x1000089F8, symSize: 0x14 }
  - { offsetInCU: 0x32298, offset: 0x32298, size: 0x8, addend: 0x0, symName: __ZNSt7__debug6vectorIxSaIxEE7_M_baseEv, symObjAddr: 0x6290, symBinAddr: 0x1000089CC, symSize: 0x18 }
  - { offsetInCU: 0x322A0, offset: 0x322A0, size: 0x8, addend: 0x0, symName: __ZN11__gnu_debug18_BeforeBeginHelperINSt7__debug6vectorIxSaIxEEEE5_S_IsIN9__gnu_cxx17__normal_iteratorIPxNSt9__cxx19986vectorIxS3_EEEESt20forward_iterator_tagEEbRKNS_14_Safe_iteratorIT_S4_T0_EE, symObjAddr: 0x62A8, symBinAddr: 0x1000089E4, symSize: 0x14 }
  - { offsetInCU: 0x322C9, offset: 0x322C9, size: 0x8, addend: 0x0, symName: __ZN9__gnu_cxx17__normal_iteratorIPxNSt9__cxx19986vectorIxSaIxEEEEppEv, symObjAddr: 0x6268, symBinAddr: 0x1000089A4, symSize: 0x28 }
  - { offsetInCU: 0x322D1, offset: 0x322D1, size: 0x8, addend: 0x0, symName: __ZNSt7__debug6vectorIxSaIxEE7_M_baseEv, symObjAddr: 0x6290, symBinAddr: 0x1000089CC, symSize: 0x18 }
  - { offsetInCU: 0x322FA, offset: 0x322FA, size: 0x8, addend: 0x0, symName: __ZN11__gnu_debug14_Safe_iteratorIN9__gnu_cxx17__normal_iteratorIPxNSt9__cxx19986vectorIxSaIxEEEEENSt7__debug6vectorIxS6_EESt20forward_iterator_tagE4baseEv, symObjAddr: 0x6254, symBinAddr: 0x100008990, symSize: 0x14 }
  - { offsetInCU: 0x32302, offset: 0x32302, size: 0x8, addend: 0x0, symName: __ZN9__gnu_cxx17__normal_iteratorIPxNSt9__cxx19986vectorIxSaIxEEEEppEv, symObjAddr: 0x6268, symBinAddr: 0x1000089A4, symSize: 0x28 }
  - { offsetInCU: 0x3232B, offset: 0x3232B, size: 0x8, addend: 0x0, symName: __ZNK11__gnu_debug14_Safe_iteratorIN9__gnu_cxx17__normal_iteratorIPxNSt9__cxx19986vectorIxSaIxEEEEENSt7__debug6vectorIxS6_EESt20forward_iterator_tagE16_M_incrementableEv, symObjAddr: 0x61F0, symBinAddr: 0x10000892C, symSize: 0x64 }
  - { offsetInCU: 0x32333, offset: 0x32333, size: 0x8, addend: 0x0, symName: __ZN11__gnu_debug14_Safe_iteratorIN9__gnu_cxx17__normal_iteratorIPxNSt9__cxx19986vectorIxSaIxEEEEENSt7__debug6vectorIxS6_EESt20forward_iterator_tagE4baseEv, symObjAddr: 0x6254, symBinAddr: 0x100008990, symSize: 0x14 }
  - { offsetInCU: 0x3235C, offset: 0x3235C, size: 0x8, addend: 0x0, symName: __ZNK11__gnu_debug14_Safe_iteratorIN9__gnu_cxx17__normal_iteratorIPxNSt9__cxx19986vectorIxSaIxEEEEENSt7__debug6vectorIxS6_EESt20forward_iterator_tagE11_M_is_beginEv, symObjAddr: 0x61A0, symBinAddr: 0x1000088DC, symSize: 0x50 }
  - { offsetInCU: 0x32364, offset: 0x32364, size: 0x8, addend: 0x0, symName: __ZNK11__gnu_debug14_Safe_iteratorIN9__gnu_cxx17__normal_iteratorIPxNSt9__cxx19986vectorIxSaIxEEEEENSt7__debug6vectorIxS6_EESt20forward_iterator_tagE16_M_incrementableEv, symObjAddr: 0x61F0, symBinAddr: 0x10000892C, symSize: 0x64 }
  - { offsetInCU: 0x3238D, offset: 0x3238D, size: 0x8, addend: 0x0, symName: __ZNK11__gnu_debug14_Safe_iteratorIN9__gnu_cxx17__normal_iteratorIPxNSt9__cxx19986vectorIxSaIxEEEEENSt7__debug6vectorIxS6_EESt20forward_iterator_tagE15_M_get_sequenceEv, symObjAddr: 0x6188, symBinAddr: 0x1000088C4, symSize: 0x18 }
  - { offsetInCU: 0x32395, offset: 0x32395, size: 0x8, addend: 0x0, symName: __ZNK11__gnu_debug14_Safe_iteratorIN9__gnu_cxx17__normal_iteratorIPxNSt9__cxx19986vectorIxSaIxEEEEENSt7__debug6vectorIxS6_EESt20forward_iterator_tagE11_M_is_beginEv, symObjAddr: 0x61A0, symBinAddr: 0x1000088DC, symSize: 0x50 }
  - { offsetInCU: 0x32562, offset: 0x32562, size: 0x8, addend: 0x0, symName: __ZSt11__addressofIKN11__gnu_debug14_Safe_iteratorIN9__gnu_cxx17__normal_iteratorIPxNSt9__cxx19986vectorIxSaIxEEEEENSt7__debug6vectorIxS7_EESt26random_access_iterator_tagEEEPT_RSG_, symObjAddr: 0x6174, symBinAddr: 0x1000088B0, symSize: 0x14 }
  - { offsetInCU: 0x3256A, offset: 0x3256A, size: 0x8, addend: 0x0, symName: __ZNK11__gnu_debug14_Safe_iteratorIN9__gnu_cxx17__normal_iteratorIPxNSt9__cxx19986vectorIxSaIxEEEEENSt7__debug6vectorIxS6_EESt20forward_iterator_tagE15_M_get_sequenceEv, symObjAddr: 0x6188, symBinAddr: 0x1000088C4, symSize: 0x18 }
  - { offsetInCU: 0x324FC, offset: 0x324FC, size: 0x8, addend: 0x0, symName: __ZN11__gnu_debug14_Safe_iteratorIN9__gnu_cxx17__normal_iteratorIPxNSt9__cxx19986vectorIxSaIxEEEEENSt7__debug6vectorIxS6_EESt20forward_iterator_tagEC2ES8_PKNS_19_Safe_sequence_baseE, symObjAddr: 0x6120, symBinAddr: 0x10000885C, symSize: 0x54 }
  - { offsetInCU: 0x32504, offset: 0x32504, size: 0x8, addend: 0x0, symName: __ZSt11__addressofIKN11__gnu_debug14_Safe_iteratorIN9__gnu_cxx17__normal_iteratorIPxNSt9__cxx19986vectorIxSaIxEEEEENSt7__debug6vectorIxS7_EESt26random_access_iterator_tagEEEPT_RSG_, symObjAddr: 0x6174, symBinAddr: 0x1000088B0, symSize: 0x14 }
  - { offsetInCU: 0x32529, offset: 0x32529, size: 0x8, addend: 0x0, symName: __ZSt11__addressofIKNSt7__debug6vectorINS1_IxSaIxEEESaIS3_EEEEPT_RS7_, symObjAddr: 0x610C, symBinAddr: 0x100008848, symSize: 0x14 }
  - { offsetInCU: 0x32531, offset: 0x32531, size: 0x8, addend: 0x0, symName: __ZN11__gnu_debug14_Safe_iteratorIN9__gnu_cxx17__normal_iteratorIPxNSt9__cxx19986vectorIxSaIxEEEEENSt7__debug6vectorIxS6_EESt20forward_iterator_tagEC2ES8_PKNS_19_Safe_sequence_baseE, symObjAddr: 0x6120, symBinAddr: 0x10000885C, symSize: 0x54 }
  - { offsetInCU: 0x32550, offset: 0x32550, size: 0x8, addend: 0x0, symName: __ZSt11__addressofIKNSt7__debug6vectorIxSaIxEEEEPT_RS5_, symObjAddr: 0x60F8, symBinAddr: 0x100008834, symSize: 0x14 }
  - { offsetInCU: 0x32558, offset: 0x32558, size: 0x8, addend: 0x0, symName: __ZSt11__addressofIKNSt7__debug6vectorINS1_IxSaIxEEESaIS3_EEEEPT_RS7_, symObjAddr: 0x610C, symBinAddr: 0x100008848, symSize: 0x14 }
  - { offsetInCU: 0x32566, offset: 0x32566, size: 0x8, addend: 0x0, symName: __ZNSt12_Destroy_auxILb1EE9__destroyIPxEEvT_S3_, symObjAddr: 0x60E0, symBinAddr: 0x10000881C, symSize: 0x18 }
  - { offsetInCU: 0x3256E, offset: 0x3256E, size: 0x8, addend: 0x0, symName: __ZSt11__addressofIKNSt7__debug6vectorIxSaIxEEEEPT_RS5_, symObjAddr: 0x60F8, symBinAddr: 0x100008834, symSize: 0x14 }
  - { offsetInCU: 0x325AC, offset: 0x325AC, size: 0x8, addend: 0x0, symName: __ZNSt12_Destroy_auxILb0EE9__destroyIPxEEvT_S3_, symObjAddr: 0x6094, symBinAddr: 0x1000087D0, symSize: 0x4C }
  - { offsetInCU: 0x325B4, offset: 0x325B4, size: 0x8, addend: 0x0, symName: __ZNSt12_Destroy_auxILb1EE9__destroyIPxEEvT_S3_, symObjAddr: 0x60E0, symBinAddr: 0x10000881C, symSize: 0x18 }
  - { offsetInCU: 0x32600, offset: 0x32600, size: 0x8, addend: 0x0, symName: __ZNSt12_Destroy_auxILb0EE9__destroyIPNSt7__debug6vectorIxSaIxEEEEEvT_S7_, symObjAddr: 0x6048, symBinAddr: 0x100008784, symSize: 0x4C }
  - { offsetInCU: 0x32608, offset: 0x32608, size: 0x8, addend: 0x0, symName: __ZNSt12_Destroy_auxILb0EE9__destroyIPxEEvT_S3_, symObjAddr: 0x6094, symBinAddr: 0x1000087D0, symSize: 0x4C }
  - { offsetInCU: 0x3272C, offset: 0x3272C, size: 0x8, addend: 0x0, symName: __ZSt11__addressofIKPKxEPT_RS3_, symObjAddr: 0x6034, symBinAddr: 0x100008770, symSize: 0x14 }
  - { offsetInCU: 0x32734, offset: 0x32734, size: 0x8, addend: 0x0, symName: __ZNSt12_Destroy_auxILb0EE9__destroyIPNSt7__debug6vectorIxSaIxEEEEEvT_S7_, symObjAddr: 0x6048, symBinAddr: 0x100008784, symSize: 0x4C }
  - { offsetInCU: 0x32765, offset: 0x32765, size: 0x8, addend: 0x0, symName: __ZNSt9__cxx19986vectorIxSaIxEE21_M_default_initializeEm, symObjAddr: 0x5FE4, symBinAddr: 0x100008720, symSize: 0x50 }
  - { offsetInCU: 0x3276D, offset: 0x3276D, size: 0x8, addend: 0x0, symName: __ZSt11__addressofIKPKxEPT_RS3_, symObjAddr: 0x6034, symBinAddr: 0x100008770, symSize: 0x14 }
  - { offsetInCU: 0x32819, offset: 0x32819, size: 0x8, addend: 0x0, symName: __ZNSt9__cxx199812_Vector_baseIxSaIxEEC2EmRKS1_, symObjAddr: 0x5F90, symBinAddr: 0x1000086CC, symSize: 0x54 }
  - { offsetInCU: 0x32821, offset: 0x32821, size: 0x8, addend: 0x0, symName: __ZNSt9__cxx19986vectorIxSaIxEE21_M_default_initializeEm, symObjAddr: 0x5FE4, symBinAddr: 0x100008720, symSize: 0x50 }
  - { offsetInCU: 0x32834, offset: 0x32834, size: 0x8, addend: 0x0, symName: __ZNSt9__cxx19986vectorIxSaIxEE17_S_check_init_lenEmRKS1_, symObjAddr: 0x5F1C, symBinAddr: 0x100008658, symSize: 0x74 }
  - { offsetInCU: 0x3283C, offset: 0x3283C, size: 0x8, addend: 0x0, symName: __ZNSt9__cxx199812_Vector_baseIxSaIxEEC2EmRKS1_, symObjAddr: 0x5F90, symBinAddr: 0x1000086CC, symSize: 0x54 }
  - { offsetInCU: 0x3290E, offset: 0x3290E, size: 0x8, addend: 0x0, symName: __ZNSt23mersenne_twister_engineIjLm32ELm624ELm397ELm31ELj2567483615ELm11ELj4294967295ELm7ELj2636928640ELm15ELj4022730752ELm18ELj1812433253EEclEv, symObjAddr: 0x5E68, symBinAddr: 0x1000085A4, symSize: 0xB4 }
  - { offsetInCU: 0x32916, offset: 0x32916, size: 0x8, addend: 0x0, symName: __ZNSt9__cxx19986vectorIxSaIxEE17_S_check_init_lenEmRKS1_, symObjAddr: 0x5F1C, symBinAddr: 0x100008658, symSize: 0x74 }
  - { offsetInCU: 0x3295D, offset: 0x3295D, size: 0x8, addend: 0x0, symName: __ZNSt24uniform_int_distributionIxE5_S_ndIySt23mersenne_twister_engineIjLm32ELm624ELm397ELm31ELj2567483615ELm11ELj4294967295ELm7ELj2636928640ELm15ELj4022730752ELm18ELj1812433253EEjEET1_RT0_S4_, symObjAddr: 0x5DC4, symBinAddr: 0x100008500, symSize: 0xA4 }
  - { offsetInCU: 0x32965, offset: 0x32965, size: 0x8, addend: 0x0, symName: __ZNSt23mersenne_twister_engineIjLm32ELm624ELm397ELm31ELj2567483615ELm11ELj4294967295ELm7ELj2636928640ELm15ELj4022730752ELm18ELj1812433253EEclEv, symObjAddr: 0x5E68, symBinAddr: 0x1000085A4, symSize: 0xB4 }
  - { offsetInCU: 0x32A1F, offset: 0x32A1F, size: 0x8, addend: 0x0, symName: __ZNKSt24uniform_int_distributionIxE10param_type1aEv, symObjAddr: 0x5DAC, symBinAddr: 0x1000084E8, symSize: 0x18 }
  - { offsetInCU: 0x32A27, offset: 0x32A27, size: 0x8, addend: 0x0, symName: __ZNSt24uniform_int_distributionIxE5_S_ndIySt23mersenne_twister_engineIjLm32ELm624ELm397ELm31ELj2567483615ELm11ELj4294967295ELm7ELj2636928640ELm15ELj4022730752ELm18ELj1812433253EEjEET1_RT0_S4_, symObjAddr: 0x5DC4, symBinAddr: 0x100008500, symSize: 0xA4 }
  - { offsetInCU: 0x32A50, offset: 0x32A50, size: 0x8, addend: 0x0, symName: __ZNKSt24uniform_int_distributionIxE10param_type1bEv, symObjAddr: 0x5D94, symBinAddr: 0x1000084D0, symSize: 0x18 }
  - { offsetInCU: 0x32A58, offset: 0x32A58, size: 0x8, addend: 0x0, symName: __ZNKSt24uniform_int_distributionIxE10param_type1aEv, symObjAddr: 0x5DAC, symBinAddr: 0x1000084E8, symSize: 0x18 }
  - { offsetInCU: 0x32ACA, offset: 0x32ACA, size: 0x8, addend: 0x0, symName: __ZNSt8__detail5__modIjLj624ELj1ELj0EEET_S1_, symObjAddr: 0x5D70, symBinAddr: 0x1000084AC, symSize: 0x24 }
  - { offsetInCU: 0x32AD2, offset: 0x32AD2, size: 0x8, addend: 0x0, symName: __ZNKSt24uniform_int_distributionIxE10param_type1bEv, symObjAddr: 0x5D94, symBinAddr: 0x1000084D0, symSize: 0x18 }
  - { offsetInCU: 0x32B67, offset: 0x32B67, size: 0x8, addend: 0x0, symName: __ZNSt8__detail5__modIjLj0ELj1ELj0EEET_S1_, symObjAddr: 0x5D4C, symBinAddr: 0x100008488, symSize: 0x24 }
  - { offsetInCU: 0x32B6F, offset: 0x32B6F, size: 0x8, addend: 0x0, symName: __ZNSt8__detail5__modIjLj624ELj1ELj0EEET_S1_, symObjAddr: 0x5D70, symBinAddr: 0x1000084AC, symSize: 0x24 }
  - { offsetInCU: 0x32BC2, offset: 0x32BC2, size: 0x8, addend: 0x0, symName: __ZNK9__gnu_cxx17__normal_iteratorIPxNSt9__cxx19986vectorIxSaIxEEEEmiEl, symObjAddr: 0x5D08, symBinAddr: 0x100008444, symSize: 0x44 }
  - { offsetInCU: 0x32BCA, offset: 0x32BCA, size: 0x8, addend: 0x0, symName: __ZNSt8__detail5__modIjLj0ELj1ELj0EEET_S1_, symObjAddr: 0x5D4C, symBinAddr: 0x100008488, symSize: 0x24 }
  - { offsetInCU: 0x32CCD, offset: 0x32CCD, size: 0x8, addend: 0x0, symName: __ZN9__gnu_cxxeqIPKxNSt9__cxx19986vectorIxSaIxEEEEEbRKNS_17__normal_iteratorIT_T0_EESC_, symObjAddr: 0x5CC4, symBinAddr: 0x100008400, symSize: 0x44 }
  - { offsetInCU: 0x32CD5, offset: 0x32CD5, size: 0x8, addend: 0x0, symName: __ZNK9__gnu_cxx17__normal_iteratorIPxNSt9__cxx19986vectorIxSaIxEEEEmiEl, symObjAddr: 0x5D08, symBinAddr: 0x100008444, symSize: 0x44 }
  - { offsetInCU: 0x32C78, offset: 0x32C78, size: 0x8, addend: 0x0, symName: __ZNKSt9__cxx19986vectorIxSaIxEE3endEv, symObjAddr: 0x5C9C, symBinAddr: 0x1000083D8, symSize: 0x28 }
  - { offsetInCU: 0x32C80, offset: 0x32C80, size: 0x8, addend: 0x0, symName: __ZN9__gnu_cxxeqIPKxNSt9__cxx19986vectorIxSaIxEEEEEbRKNS_17__normal_iteratorIT_T0_EESC_, symObjAddr: 0x5CC4, symBinAddr: 0x100008400, symSize: 0x44 }
  - { offsetInCU: 0x32CA9, offset: 0x32CA9, size: 0x8, addend: 0x0, symName: __ZNKSt9__cxx19986vectorIxSaIxEE5beginEv, symObjAddr: 0x5C78, symBinAddr: 0x1000083B4, symSize: 0x24 }
  - { offsetInCU: 0x32CB1, offset: 0x32CB1, size: 0x8, addend: 0x0, symName: __ZNKSt9__cxx19986vectorIxSaIxEE3endEv, symObjAddr: 0x5C9C, symBinAddr: 0x1000083D8, symSize: 0x28 }
  - { offsetInCU: 0x32E36, offset: 0x32E36, size: 0x8, addend: 0x0, symName: __ZN11__gnu_debug16_Error_formatter10_ParameterC1IN9__gnu_cxx17__normal_iteratorIPNSt7__debug6vectorIxSaIxEEENSt9__cxx19986vectorIS8_SaIS8_EEEEENS6_IS8_SC_EESt20forward_iterator_tagEERKNS_14_Safe_iteratorIT_T0_T1_EEPKcNS0_12_Is_iteratorE, symObjAddr: 0x5AFC, symBinAddr: 0x100008238, symSize: 0x17C }
  - { offsetInCU: 0x32E3E, offset: 0x32E3E, size: 0x8, addend: 0x0, symName: __ZNKSt9__cxx19986vectorIxSaIxEE5beginEv, symObjAddr: 0x5C78, symBinAddr: 0x1000083B4, symSize: 0x24 }
  - { offsetInCU: 0x32DC7, offset: 0x32DC7, size: 0x8, addend: 0x0, symName: __ZNK11__gnu_debug14_Safe_iteratorIN9__gnu_cxx17__normal_iteratorIPNSt7__debug6vectorIxSaIxEEENSt9__cxx19986vectorIS6_SaIS6_EEEEENS4_IS6_SA_EESt20forward_iterator_tagE18_M_is_before_beginEv, symObjAddr: 0x5ADC, symBinAddr: 0x100008218, symSize: 0x20 }
  - { offsetInCU: 0x32DCF, offset: 0x32DCF, size: 0x8, addend: 0x0, symName: __ZN11__gnu_debug16_Error_formatter10_ParameterC1IN9__gnu_cxx17__normal_iteratorIPNSt7__debug6vectorIxSaIxEEENSt9__cxx19986vectorIS8_SaIS8_EEEEENS6_IS8_SC_EESt20forward_iterator_tagEERKNS_14_Safe_iteratorIT_T0_T1_EEPKcNS0_12_Is_iteratorE, symObjAddr: 0x5AFC, symBinAddr: 0x100008238, symSize: 0x17C }
  - { offsetInCU: 0x32DF8, offset: 0x32DF8, size: 0x8, addend: 0x0, symName: __ZNK11__gnu_debug14_Safe_iteratorIN9__gnu_cxx17__normal_iteratorIPNSt7__debug6vectorIxSaIxEEENSt9__cxx19986vectorIS6_SaIS6_EEEEENS4_IS6_SA_EESt20forward_iterator_tagE9_M_is_endEv, symObjAddr: 0x5A8C, symBinAddr: 0x1000081C8, symSize: 0x50 }
  - { offsetInCU: 0x32E00, offset: 0x32E00, size: 0x8, addend: 0x0, symName: __ZNK11__gnu_debug14_Safe_iteratorIN9__gnu_cxx17__normal_iteratorIPNSt7__debug6vectorIxSaIxEEENSt9__cxx19986vectorIS6_SaIS6_EEEEENS4_IS6_SA_EESt20forward_iterator_tagE18_M_is_before_beginEv, symObjAddr: 0x5ADC, symBinAddr: 0x100008218, symSize: 0x20 }
  - { offsetInCU: 0x32E29, offset: 0x32E29, size: 0x8, addend: 0x0, symName: __ZN11__gnu_debug14_Safe_iteratorIN9__gnu_cxx17__normal_iteratorIPNSt7__debug6vectorIxSaIxEEENSt9__cxx19986vectorIS6_SaIS6_EEEEENS4_IS6_SA_EESt20forward_iterator_tagEppEv, symObjAddr: 0x5988, symBinAddr: 0x1000080C4, symSize: 0x104 }
  - { offsetInCU: 0x32E31, offset: 0x32E31, size: 0x8, addend: 0x0, symName: __ZNK11__gnu_debug14_Safe_iteratorIN9__gnu_cxx17__normal_iteratorIPNSt7__debug6vectorIxSaIxEEENSt9__cxx19986vectorIS6_SaIS6_EEEEENS4_IS6_SA_EESt20forward_iterator_tagE9_M_is_endEv, symObjAddr: 0x5A8C, symBinAddr: 0x1000081C8, symSize: 0x50 }
  - { offsetInCU: 0x32EA6, offset: 0x32EA6, size: 0x8, addend: 0x0, symName: __ZNK9__gnu_cxx17__normal_iteratorIPNSt7__debug6vectorIxSaIxEEENSt9__cxx19986vectorIS4_SaIS4_EEEE4baseEv, symObjAddr: 0x5974, symBinAddr: 0x1000080B0, symSize: 0x14 }
  - { offsetInCU: 0x32EAE, offset: 0x32EAE, size: 0x8, addend: 0x0, symName: __ZN11__gnu_debug14_Safe_iteratorIN9__gnu_cxx17__normal_iteratorIPNSt7__debug6vectorIxSaIxEEENSt9__cxx19986vectorIS6_SaIS6_EEEEENS4_IS6_SA_EESt20forward_iterator_tagEppEv, symObjAddr: 0x5988, symBinAddr: 0x1000080C4, symSize: 0x104 }
  - { offsetInCU: 0x33039, offset: 0x33039, size: 0x8, addend: 0x0, symName: __ZN11__gnu_debug16_Error_formatter10_ParameterC1IN9__gnu_cxx17__normal_iteratorIPNSt7__debug6vectorIxSaIxEEENSt9__cxx19986vectorIS8_SaIS8_EEEEENS6_IS8_SC_EESt26random_access_iterator_tagEERKNS_14_Safe_iteratorIT_T0_T1_EEPKcNS0_12_Is_iteratorE, symObjAddr: 0x57F8, symBinAddr: 0x100007F34, symSize: 0x17C }
  - { offsetInCU: 0x33041, offset: 0x33041, size: 0x8, addend: 0x0, symName: __ZNK9__gnu_cxx17__normal_iteratorIPNSt7__debug6vectorIxSaIxEEENSt9__cxx19986vectorIS4_SaIS4_EEEE4baseEv, symObjAddr: 0x5974, symBinAddr: 0x1000080B0, symSize: 0x14 }
  - { offsetInCU: 0x32FC5, offset: 0x32FC5, size: 0x8, addend: 0x0, symName: __ZN11__gnu_debug14_Safe_iteratorIN9__gnu_cxx17__normal_iteratorIPNSt7__debug6vectorIxSaIxEEENSt9__cxx19986vectorIS6_SaIS6_EEEEENS4_IS6_SA_EESt20forward_iterator_tagE11_S_constantEv, symObjAddr: 0x57F0, symBinAddr: 0x100007F2C, symSize: 0x8 }
  - { offsetInCU: 0x32FCD, offset: 0x32FCD, size: 0x8, addend: 0x0, symName: __ZN11__gnu_debug16_Error_formatter10_ParameterC1IN9__gnu_cxx17__normal_iteratorIPNSt7__debug6vectorIxSaIxEEENSt9__cxx19986vectorIS8_SaIS8_EEEEENS6_IS8_SC_EESt26random_access_iterator_tagEERKNS_14_Safe_iteratorIT_T0_T1_EEPKcNS0_12_Is_iteratorE, symObjAddr: 0x57F8, symBinAddr: 0x100007F34, symSize: 0x17C }
  - { offsetInCU: 0x33060, offset: 0x33060, size: 0x8, addend: 0x0, symName: __ZN9__gnu_cxx17__normal_iteratorIPNSt7__debug6vectorIxSaIxEEENSt9__cxx19986vectorIS4_SaIS4_EEEEC1Ev, symObjAddr: 0x57D4, symBinAddr: 0x100007F10, symSize: 0x1C }
  - { offsetInCU: 0x33068, offset: 0x33068, size: 0x8, addend: 0x0, symName: __ZN11__gnu_debug14_Safe_iteratorIN9__gnu_cxx17__normal_iteratorIPNSt7__debug6vectorIxSaIxEEENSt9__cxx19986vectorIS6_SaIS6_EEEEENS4_IS6_SA_EESt20forward_iterator_tagE11_S_constantEv, symObjAddr: 0x57F0, symBinAddr: 0x100007F2C, symSize: 0x8 }
  - { offsetInCU: 0x33138, offset: 0x33138, size: 0x8, addend: 0x0, symName: __ZN11__gnu_debug14_Safe_iteratorIN9__gnu_cxx17__normal_iteratorIPNSt7__debug6vectorIxSaIxEEENSt9__cxx19986vectorIS6_SaIS6_EEEEENS4_IS6_SA_EESt26bidirectional_iterator_tagEC2ESC_PKNS_19_Safe_sequence_baseE, symObjAddr: 0x57A4, symBinAddr: 0x100007EE0, symSize: 0x30 }
  - { offsetInCU: 0x33140, offset: 0x33140, size: 0x8, addend: 0x0, symName: __ZN9__gnu_cxx17__normal_iteratorIPNSt7__debug6vectorIxSaIxEEENSt9__cxx19986vectorIS4_SaIS4_EEEEC1Ev, symObjAddr: 0x57D4, symBinAddr: 0x100007F10, symSize: 0x1C }
  - { offsetInCU: 0x3314A, offset: 0x3314A, size: 0x8, addend: 0x0, symName: __ZN9__gnu_cxx17__normal_iteratorIPNSt7__debug6vectorIxSaIxEEENSt9__cxx19986vectorIS4_SaIS4_EEEEC1ERKS5_, symObjAddr: 0x577C, symBinAddr: 0x100007EB8, symSize: 0x28 }
  - { offsetInCU: 0x33152, offset: 0x33152, size: 0x8, addend: 0x0, symName: __ZN11__gnu_debug14_Safe_iteratorIN9__gnu_cxx17__normal_iteratorIPNSt7__debug6vectorIxSaIxEEENSt9__cxx19986vectorIS6_SaIS6_EEEEENS4_IS6_SA_EESt26bidirectional_iterator_tagEC2ESC_PKNS_19_Safe_sequence_baseE, symObjAddr: 0x57A4, symBinAddr: 0x100007EE0, symSize: 0x30 }
  - { offsetInCU: 0x3311F, offset: 0x3311F, size: 0x8, addend: 0x0, symName: __ZNSt9__cxx19986vectorIxSaIxEE15_M_erase_at_endEPx, symObjAddr: 0x56F4, symBinAddr: 0x100007E30, symSize: 0x88 }
  - { offsetInCU: 0x33127, offset: 0x33127, size: 0x8, addend: 0x0, symName: __ZN9__gnu_cxx17__normal_iteratorIPNSt7__debug6vectorIxSaIxEEENSt9__cxx19986vectorIS4_SaIS4_EEEEC1ERKS5_, symObjAddr: 0x577C, symBinAddr: 0x100007EB8, symSize: 0x28 }
  - { offsetInCU: 0x331CF, offset: 0x331CF, size: 0x8, addend: 0x0, symName: __ZNSt9__cxx19986vectorINSt7__debug6vectorIxSaIxEEESaIS4_EE14_M_fill_assignEmRKS4_, symObjAddr: 0x55B4, symBinAddr: 0x100007CF0, symSize: 0x140 }
  - { offsetInCU: 0x331D7, offset: 0x331D7, size: 0x8, addend: 0x0, symName: __ZNSt9__cxx19986vectorIxSaIxEE15_M_erase_at_endEPx, symObjAddr: 0x56F4, symBinAddr: 0x100007E30, symSize: 0x88 }
  - { offsetInCU: 0x3327A, offset: 0x3327A, size: 0x8, addend: 0x0, symName: __ZNSt9__cxx19986vectorIxSaIxEE14_M_fill_assignEmRKx, symObjAddr: 0x5474, symBinAddr: 0x100007BB0, symSize: 0x140 }
  - { offsetInCU: 0x33282, offset: 0x33282, size: 0x8, addend: 0x0, symName: __ZNSt9__cxx19986vectorINSt7__debug6vectorIxSaIxEEESaIS4_EE14_M_fill_assignEmRKS4_, symObjAddr: 0x55B4, symBinAddr: 0x100007CF0, symSize: 0x140 }
  - { offsetInCU: 0x33325, offset: 0x33325, size: 0x8, addend: 0x0, symName: __ZNSt9__cxx19986vectorINSt7__debug6vectorIxSaIxEEESaIS4_EE15_M_erase_at_endEPS4_, symObjAddr: 0x53D8, symBinAddr: 0x100007B14, symSize: 0x9C }
  - { offsetInCU: 0x3332D, offset: 0x3332D, size: 0x8, addend: 0x0, symName: __ZNSt9__cxx19986vectorIxSaIxEE14_M_fill_assignEmRKx, symObjAddr: 0x5474, symBinAddr: 0x100007BB0, symSize: 0x140 }
  - { offsetInCU: 0x333D5, offset: 0x333D5, size: 0x8, addend: 0x0, symName: __ZNSt9__cxx19986vectorIxSaIxEE17_M_realloc_insertIJRKxEEEvN9__gnu_cxx17__normal_iteratorIPxS2_EEDpOT_, symObjAddr: 0x524C, symBinAddr: 0x100007988, symSize: 0x18C }
  - { offsetInCU: 0x333DD, offset: 0x333DD, size: 0x8, addend: 0x0, symName: __ZNSt9__cxx19986vectorINSt7__debug6vectorIxSaIxEEESaIS4_EE15_M_erase_at_endEPS4_, symObjAddr: 0x53D8, symBinAddr: 0x100007B14, symSize: 0x9C }
  - { offsetInCU: 0x335D2, offset: 0x335D2, size: 0x8, addend: 0x0, symName: __ZN9__gnu_cxxmiIPxNSt9__cxx19986vectorIxSaIxEEEEENS_17__normal_iteratorIT_T0_E15difference_typeERKS9_SC_, symObjAddr: 0x520C, symBinAddr: 0x100007948, symSize: 0x40 }
  - { offsetInCU: 0x335DA, offset: 0x335DA, size: 0x8, addend: 0x0, symName: __ZNSt9__cxx19986vectorIxSaIxEE17_M_realloc_insertIJRKxEEEvN9__gnu_cxx17__normal_iteratorIPxS2_EEDpOT_, symObjAddr: 0x524C, symBinAddr: 0x100007988, symSize: 0x18C }
  - { offsetInCU: 0x33572, offset: 0x33572, size: 0x8, addend: 0x0, symName: __ZNKSt9__cxx19986vectorIxSaIxEE12_M_check_lenEmPKc, symObjAddr: 0x513C, symBinAddr: 0x100007878, symSize: 0xD0 }
  - { offsetInCU: 0x3357A, offset: 0x3357A, size: 0x8, addend: 0x0, symName: __ZN9__gnu_cxxmiIPxNSt9__cxx19986vectorIxSaIxEEEEENS_17__normal_iteratorIT_T0_E15difference_typeERKS9_SC_, symObjAddr: 0x520C, symBinAddr: 0x100007948, symSize: 0x40 }
  - { offsetInCU: 0x3363E, offset: 0x3363E, size: 0x8, addend: 0x0, symName: __ZNKSt7__debug6vectorIxSaIxEE8capacityEv, symObjAddr: 0x511C, symBinAddr: 0x100007858, symSize: 0x20 }
  - { offsetInCU: 0x33646, offset: 0x33646, size: 0x8, addend: 0x0, symName: __ZNKSt9__cxx19986vectorIxSaIxEE12_M_check_lenEmPKc, symObjAddr: 0x513C, symBinAddr: 0x100007878, symSize: 0xD0 }
  - { offsetInCU: 0x3366F, offset: 0x3366F, size: 0x8, addend: 0x0, symName: __ZNSt7__debug6vectorINS0_IxSaIxEEESaIS2_EE4backEv, symObjAddr: 0x5050, symBinAddr: 0x10000778C, symSize: 0xCC }
  - { offsetInCU: 0x33677, offset: 0x33677, size: 0x8, addend: 0x0, symName: __ZNKSt7__debug6vectorIxSaIxEE8capacityEv, symObjAddr: 0x511C, symBinAddr: 0x100007858, symSize: 0x20 }
  - { offsetInCU: 0x336D7, offset: 0x336D7, size: 0x8, addend: 0x0, symName: __ZNSt9__cxx19986vectorINSt7__debug6vectorIxSaIxEEESaIS4_EE12emplace_backIJS4_EEERS4_DpOT_, symObjAddr: 0x4F9C, symBinAddr: 0x1000076D8, symSize: 0xB4 }
  - { offsetInCU: 0x336DF, offset: 0x336DF, size: 0x8, addend: 0x0, symName: __ZNSt7__debug6vectorINS0_IxSaIxEEESaIS2_EE4backEv, symObjAddr: 0x5050, symBinAddr: 0x10000778C, symSize: 0xCC }
  - { offsetInCU: 0x337EC, offset: 0x337EC, size: 0x8, addend: 0x0, symName: __ZSt7forwardINSt7__debug6vectorIxSaIxEEEEOT_RNSt16remove_referenceIS4_E4typeE, symObjAddr: 0x4F88, symBinAddr: 0x1000076C4, symSize: 0x14 }
  - { offsetInCU: 0x337F4, offset: 0x337F4, size: 0x8, addend: 0x0, symName: __ZNSt9__cxx19986vectorINSt7__debug6vectorIxSaIxEEESaIS4_EE12emplace_backIJS4_EEERS4_DpOT_, symObjAddr: 0x4F9C, symBinAddr: 0x1000076D8, symSize: 0xB4 }
  - { offsetInCU: 0x337C2, offset: 0x337C2, size: 0x8, addend: 0x0, symName: __ZNK11__gnu_debug12_Safe_vectorINSt7__debug6vectorINS2_IxSaIxEEESaIS4_EEENSt9__cxx19986vectorIS4_S5_EEE24_M_requires_reallocationEm, symObjAddr: 0x4F50, symBinAddr: 0x10000768C, symSize: 0x38 }
  - { offsetInCU: 0x337CA, offset: 0x337CA, size: 0x8, addend: 0x0, symName: __ZSt7forwardINSt7__debug6vectorIxSaIxEEEEOT_RNSt16remove_referenceIS4_E4typeE, symObjAddr: 0x4F88, symBinAddr: 0x1000076C4, symSize: 0x14 }
  - { offsetInCU: 0x33807, offset: 0x33807, size: 0x8, addend: 0x0, symName: __ZNSt9__cxx19986vectorIxSaIxEE19_M_range_initializeIPKxEEvT_S6_St20forward_iterator_tag, symObjAddr: 0x4E6C, symBinAddr: 0x1000075A8, symSize: 0xE4 }
  - { offsetInCU: 0x3380F, offset: 0x3380F, size: 0x8, addend: 0x0, symName: __ZNK11__gnu_debug12_Safe_vectorINSt7__debug6vectorINS2_IxSaIxEEESaIS4_EEENSt9__cxx19986vectorIS4_S5_EEE24_M_requires_reallocationEm, symObjAddr: 0x4F50, symBinAddr: 0x10000768C, symSize: 0x38 }
  - { offsetInCU: 0x3392F, offset: 0x3392F, size: 0x8, addend: 0x0, symName: __ZNKSt16initializer_listIxE3endEv, symObjAddr: 0x4E34, symBinAddr: 0x100007570, symSize: 0x38 }
  - { offsetInCU: 0x33937, offset: 0x33937, size: 0x8, addend: 0x0, symName: __ZNSt9__cxx19986vectorIxSaIxEE19_M_range_initializeIPKxEEvT_S6_St20forward_iterator_tag, symObjAddr: 0x4E6C, symBinAddr: 0x1000075A8, symSize: 0xE4 }
  - { offsetInCU: 0x33960, offset: 0x33960, size: 0x8, addend: 0x0, symName: __ZNKSt16initializer_listIxE5beginEv, symObjAddr: 0x4E1C, symBinAddr: 0x100007558, symSize: 0x18 }
  - { offsetInCU: 0x33968, offset: 0x33968, size: 0x8, addend: 0x0, symName: __ZNKSt16initializer_listIxE3endEv, symObjAddr: 0x4E34, symBinAddr: 0x100007570, symSize: 0x38 }
  - { offsetInCU: 0x339EC, offset: 0x339EC, size: 0x8, addend: 0x0, symName: __ZNSt9__cxx199812_Vector_baseIxSaIxEEC2ERKS1_, symObjAddr: 0x4DF4, symBinAddr: 0x100007530, symSize: 0x28 }
  - { offsetInCU: 0x339F4, offset: 0x339F4, size: 0x8, addend: 0x0, symName: __ZNKSt16initializer_listIxE5beginEv, symObjAddr: 0x4E1C, symBinAddr: 0x100007558, symSize: 0x18 }
  - { offsetInCU: 0x33B45, offset: 0x33B45, size: 0x8, addend: 0x0, symName: __ZN11__gnu_debug16_Error_formatter10_ParameterC1IN9__gnu_cxx17__normal_iteratorIPxNSt9__cxx19986vectorIxSaIxEEEEENSt7__debug6vectorIxS8_EESt20forward_iterator_tagEERKNS_14_Safe_iteratorIT_T0_T1_EEPKcNS0_12_Is_iteratorE, symObjAddr: 0x4C78, symBinAddr: 0x1000073B4, symSize: 0x17C }
  - { offsetInCU: 0x33B4D, offset: 0x33B4D, size: 0x8, addend: 0x0, symName: __ZNSt9__cxx199812_Vector_baseIxSaIxEEC2ERKS1_, symObjAddr: 0x4DF4, symBinAddr: 0x100007530, symSize: 0x28 }
  - { offsetInCU: 0x33AE8, offset: 0x33AE8, size: 0x8, addend: 0x0, symName: __ZNK11__gnu_debug14_Safe_iteratorIN9__gnu_cxx17__normal_iteratorIPxNSt9__cxx19986vectorIxSaIxEEEEENSt7__debug6vectorIxS6_EESt20forward_iterator_tagE18_M_is_before_beginEv, symObjAddr: 0x4C58, symBinAddr: 0x100007394, symSize: 0x20 }
  - { offsetInCU: 0x33AF0, offset: 0x33AF0, size: 0x8, addend: 0x0, symName: __ZN11__gnu_debug16_Error_formatter10_ParameterC1IN9__gnu_cxx17__normal_iteratorIPxNSt9__cxx19986vectorIxSaIxEEEEENSt7__debug6vectorIxS8_EESt20forward_iterator_tagEERKNS_14_Safe_iteratorIT_T0_T1_EEPKcNS0_12_Is_iteratorE, symObjAddr: 0x4C78, symBinAddr: 0x1000073B4, symSize: 0x17C }
  - { offsetInCU: 0x33B19, offset: 0x33B19, size: 0x8, addend: 0x0, symName: __ZNK11__gnu_debug14_Safe_iteratorIN9__gnu_cxx17__normal_iteratorIPxNSt9__cxx19986vectorIxSaIxEEEEENSt7__debug6vectorIxS6_EESt20forward_iterator_tagE9_M_is_endEv, symObjAddr: 0x4C08, symBinAddr: 0x100007344, symSize: 0x50 }
  - { offsetInCU: 0x33B21, offset: 0x33B21, size: 0x8, addend: 0x0, symName: __ZNK11__gnu_debug14_Safe_iteratorIN9__gnu_cxx17__normal_iteratorIPxNSt9__cxx19986vectorIxSaIxEEEEENSt7__debug6vectorIxS6_EESt20forward_iterator_tagE18_M_is_before_beginEv, symObjAddr: 0x4C58, symBinAddr: 0x100007394, symSize: 0x20 }
  - { offsetInCU: 0x33B4A, offset: 0x33B4A, size: 0x8, addend: 0x0, symName: __ZN11__gnu_debug14_Safe_iteratorIN9__gnu_cxx17__normal_iteratorIPxNSt9__cxx19986vectorIxSaIxEEEEENSt7__debug6vectorIxS6_EESt20forward_iterator_tagEppEv, symObjAddr: 0x4B04, symBinAddr: 0x100007240, symSize: 0x104 }
  - { offsetInCU: 0x33B52, offset: 0x33B52, size: 0x8, addend: 0x0, symName: __ZNK11__gnu_debug14_Safe_iteratorIN9__gnu_cxx17__normal_iteratorIPxNSt9__cxx19986vectorIxSaIxEEEEENSt7__debug6vectorIxS6_EESt20forward_iterator_tagE9_M_is_endEv, symObjAddr: 0x4C08, symBinAddr: 0x100007344, symSize: 0x50 }
  - { offsetInCU: 0x33BC7, offset: 0x33BC7, size: 0x8, addend: 0x0, symName: __ZNK9__gnu_cxx17__normal_iteratorIPxNSt9__cxx19986vectorIxSaIxEEEE4baseEv, symObjAddr: 0x4AF0, symBinAddr: 0x10000722C, symSize: 0x14 }
  - { offsetInCU: 0x33BCF, offset: 0x33BCF, size: 0x8, addend: 0x0, symName: __ZN11__gnu_debug14_Safe_iteratorIN9__gnu_cxx17__normal_iteratorIPxNSt9__cxx19986vectorIxSaIxEEEEENSt7__debug6vectorIxS6_EESt20forward_iterator_tagEppEv, symObjAddr: 0x4B04, symBinAddr: 0x100007240, symSize: 0x104 }
  - { offsetInCU: 0x33D48, offset: 0x33D48, size: 0x8, addend: 0x0, symName: __ZN11__gnu_debug16_Error_formatter10_ParameterC1IN9__gnu_cxx17__normal_iteratorIPxNSt9__cxx19986vectorIxSaIxEEEEENSt7__debug6vectorIxS8_EESt26random_access_iterator_tagEERKNS_14_Safe_iteratorIT_T0_T1_EEPKcNS0_12_Is_iteratorE, symObjAddr: 0x4974, symBinAddr: 0x1000070B0, symSize: 0x17C }
  - { offsetInCU: 0x33D50, offset: 0x33D50, size: 0x8, addend: 0x0, symName: __ZNK9__gnu_cxx17__normal_iteratorIPxNSt9__cxx19986vectorIxSaIxEEEE4baseEv, symObjAddr: 0x4AF0, symBinAddr: 0x10000722C, symSize: 0x14 }
  - { offsetInCU: 0x33CE6, offset: 0x33CE6, size: 0x8, addend: 0x0, symName: __ZN11__gnu_debug14_Safe_iteratorIN9__gnu_cxx17__normal_iteratorIPxNSt9__cxx19986vectorIxSaIxEEEEENSt7__debug6vectorIxS6_EESt20forward_iterator_tagE11_S_constantEv, symObjAddr: 0x496C, symBinAddr: 0x1000070A8, symSize: 0x8 }
  - { offsetInCU: 0x33CEE, offset: 0x33CEE, size: 0x8, addend: 0x0, symName: __ZN11__gnu_debug16_Error_formatter10_ParameterC1IN9__gnu_cxx17__normal_iteratorIPxNSt9__cxx19986vectorIxSaIxEEEEENSt7__debug6vectorIxS8_EESt26random_access_iterator_tagEERKNS_14_Safe_iteratorIT_T0_T1_EEPKcNS0_12_Is_iteratorE, symObjAddr: 0x4974, symBinAddr: 0x1000070B0, symSize: 0x17C }
  - { offsetInCU: 0x33D63, offset: 0x33D63, size: 0x8, addend: 0x0, symName: __ZN9__gnu_cxx17__normal_iteratorIPxNSt9__cxx19986vectorIxSaIxEEEEC1Ev, symObjAddr: 0x4950, symBinAddr: 0x10000708C, symSize: 0x1C }
  - { offsetInCU: 0x33D6B, offset: 0x33D6B, size: 0x8, addend: 0x0, symName: __ZN11__gnu_debug14_Safe_iteratorIN9__gnu_cxx17__normal_iteratorIPxNSt9__cxx19986vectorIxSaIxEEEEENSt7__debug6vectorIxS6_EESt20forward_iterator_tagE11_S_constantEv, symObjAddr: 0x496C, symBinAddr: 0x1000070A8, symSize: 0x8 }
  - { offsetInCU: 0x33E47, offset: 0x33E47, size: 0x8, addend: 0x0, symName: __ZN11__gnu_debug14_Safe_iteratorIN9__gnu_cxx17__normal_iteratorIPxNSt9__cxx19986vectorIxSaIxEEEEENSt7__debug6vectorIxS6_EESt26bidirectional_iterator_tagEC2ES8_PKNS_19_Safe_sequence_baseE, symObjAddr: 0x4920, symBinAddr: 0x10000705C, symSize: 0x30 }
  - { offsetInCU: 0x33E4F, offset: 0x33E4F, size: 0x8, addend: 0x0, symName: __ZN9__gnu_cxx17__normal_iteratorIPxNSt9__cxx19986vectorIxSaIxEEEEC1Ev, symObjAddr: 0x4950, symBinAddr: 0x10000708C, symSize: 0x1C }
  - { offsetInCU: 0x33E4D, offset: 0x33E4D, size: 0x8, addend: 0x0, symName: __ZN9__gnu_cxx17__normal_iteratorIPxNSt9__cxx19986vectorIxSaIxEEEEC1ERKS1_, symObjAddr: 0x48F8, symBinAddr: 0x100007034, symSize: 0x28 }
  - { offsetInCU: 0x33E55, offset: 0x33E55, size: 0x8, addend: 0x0, symName: __ZN11__gnu_debug14_Safe_iteratorIN9__gnu_cxx17__normal_iteratorIPxNSt9__cxx19986vectorIxSaIxEEEEENSt7__debug6vectorIxS6_EESt26bidirectional_iterator_tagEC2ES8_PKNS_19_Safe_sequence_baseE, symObjAddr: 0x4920, symBinAddr: 0x10000705C, symSize: 0x30 }
  - { offsetInCU: 0x33F0C, offset: 0x33F0C, size: 0x8, addend: 0x0, symName: __ZN11__gnu_debug16_Error_formatter10_ParameterC1INSt7__debug6vectorINS4_IxSaIxEEESaIS6_EEEEERKT_PKcNS0_12_Is_sequenceE, symObjAddr: 0x4884, symBinAddr: 0x100006FC0, symSize: 0x74 }
  - { offsetInCU: 0x33F14, offset: 0x33F14, size: 0x8, addend: 0x0, symName: __ZN9__gnu_cxx17__normal_iteratorIPxNSt9__cxx19986vectorIxSaIxEEEEC1ERKS1_, symObjAddr: 0x48F8, symBinAddr: 0x100007034, symSize: 0x28 }
  - { offsetInCU: 0x33FB7, offset: 0x33FB7, size: 0x8, addend: 0x0, symName: __ZN11__gnu_debug16_Error_formatter10_ParameterC1INSt7__debug6vectorIxSaIxEEEEERKT_PKcNS0_12_Is_sequenceE, symObjAddr: 0x4810, symBinAddr: 0x100006F4C, symSize: 0x74 }
  - { offsetInCU: 0x33FBF, offset: 0x33FBF, size: 0x8, addend: 0x0, symName: __ZN11__gnu_debug16_Error_formatter10_ParameterC1INSt7__debug6vectorINS4_IxSaIxEEESaIS6_EEEEERKT_PKcNS0_12_Is_sequenceE, symObjAddr: 0x4884, symBinAddr: 0x100006FC0, symSize: 0x74 }
  - { offsetInCU: 0x33FB2, offset: 0x33FB2, size: 0x8, addend: 0x0, symName: __ZNK11__gnu_debug12_Safe_vectorINSt7__debug6vectorIxSaIxEEENSt9__cxx19986vectorIxS3_EEE6_M_seqEv, symObjAddr: 0x47F8, symBinAddr: 0x100006F34, symSize: 0x18 }
  - { offsetInCU: 0x33FBA, offset: 0x33FBA, size: 0x8, addend: 0x0, symName: __ZN11__gnu_debug16_Error_formatter10_ParameterC1INSt7__debug6vectorIxSaIxEEEEERKT_PKcNS0_12_Is_sequenceE, symObjAddr: 0x4810, symBinAddr: 0x100006F4C, symSize: 0x74 }
  - { offsetInCU: 0x34056, offset: 0x34056, size: 0x8, addend: 0x0, symName: __ZSt8_DestroyIPxEvT_S1_, symObjAddr: 0x47B0, symBinAddr: 0x100006EEC, symSize: 0x48 }
  - { offsetInCU: 0x3405E, offset: 0x3405E, size: 0x8, addend: 0x0, symName: __ZNK11__gnu_debug12_Safe_vectorINSt7__debug6vectorIxSaIxEEENSt9__cxx19986vectorIxS3_EEE6_M_seqEv, symObjAddr: 0x47F8, symBinAddr: 0x100006F34, symSize: 0x18 }
  - { offsetInCU: 0x3407D, offset: 0x3407D, size: 0x8, addend: 0x0, symName: __ZNK11__gnu_debug12_Safe_vectorINSt7__debug6vectorINS2_IxSaIxEEESaIS4_EEENSt9__cxx19986vectorIS4_S5_EEE6_M_seqEv, symObjAddr: 0x4798, symBinAddr: 0x100006ED4, symSize: 0x18 }
  - { offsetInCU: 0x34085, offset: 0x34085, size: 0x8, addend: 0x0, symName: __ZSt8_DestroyIPxEvT_S1_, symObjAddr: 0x47B0, symBinAddr: 0x100006EEC, symSize: 0x48 }
  - { offsetInCU: 0x3410F, offset: 0x3410F, size: 0x8, addend: 0x0, symName: __ZSt8_DestroyIPNSt7__debug6vectorIxSaIxEEEEvT_S5_, symObjAddr: 0x4750, symBinAddr: 0x100006E8C, symSize: 0x48 }
  - { offsetInCU: 0x34117, offset: 0x34117, size: 0x8, addend: 0x0, symName: __ZNK11__gnu_debug12_Safe_vectorINSt7__debug6vectorINS2_IxSaIxEEESaIS4_EEENSt9__cxx19986vectorIS4_S5_EEE6_M_seqEv, symObjAddr: 0x4798, symBinAddr: 0x100006ED4, symSize: 0x18 }
  - { offsetInCU: 0x34250, offset: 0x34250, size: 0x8, addend: 0x0, symName: __ZN11__gnu_debug16_Error_formatter10_ParameterC1IxEERKPKT_PKcNS0_12_Is_iteratorE, symObjAddr: 0x46A0, symBinAddr: 0x100006DDC, symSize: 0xB0 }
  - { offsetInCU: 0x34258, offset: 0x34258, size: 0x8, addend: 0x0, symName: __ZSt8_DestroyIPNSt7__debug6vectorIxSaIxEEEEvT_S5_, symObjAddr: 0x4750, symBinAddr: 0x100006E8C, symSize: 0x48 }
  - { offsetInCU: 0x342EA, offset: 0x342EA, size: 0x8, addend: 0x0, symName: __ZN11__gnu_debug12_Safe_vectorINSt7__debug6vectorIxSaIxEEENSt9__cxx19986vectorIxS3_EEEC2Em, symObjAddr: 0x467C, symBinAddr: 0x100006DB8, symSize: 0x24 }
  - { offsetInCU: 0x342F2, offset: 0x342F2, size: 0x8, addend: 0x0, symName: __ZN11__gnu_debug16_Error_formatter10_ParameterC1IxEERKPKT_PKcNS0_12_Is_iteratorE, symObjAddr: 0x46A0, symBinAddr: 0x100006DDC, symSize: 0xB0 }
  - { offsetInCU: 0x34333, offset: 0x34333, size: 0x8, addend: 0x0, symName: __ZNSt9__cxx19986vectorIxSaIxEEC2EmRKS1_, symObjAddr: 0x4614, symBinAddr: 0x100006D50, symSize: 0x68 }
  - { offsetInCU: 0x3433B, offset: 0x3433B, size: 0x8, addend: 0x0, symName: __ZN11__gnu_debug12_Safe_vectorINSt7__debug6vectorIxSaIxEEENSt9__cxx19986vectorIxS3_EEEC2Em, symObjAddr: 0x467C, symBinAddr: 0x100006DB8, symSize: 0x24 }
  - { offsetInCU: 0x34355, offset: 0x34355, size: 0x8, addend: 0x0, symName: __ZNSt24uniform_int_distributionIxEclISt23mersenne_twister_engineIjLm32ELm624ELm397ELm31ELj2567483615ELm11ELj4294967295ELm7ELj2636928640ELm15ELj4022730752ELm18ELj1812433253EEEExRT_RKNS0_10param_typeE, symObjAddr: 0x44D4, symBinAddr: 0x100006C10, symSize: 0x140 }
  - { offsetInCU: 0x3435D, offset: 0x3435D, size: 0x8, addend: 0x0, symName: __ZNSt9__cxx19986vectorIxSaIxEEC2EmRKS1_, symObjAddr: 0x4614, symBinAddr: 0x100006D50, symSize: 0x68 }
  - { offsetInCU: 0x34581, offset: 0x34581, size: 0x8, addend: 0x0, symName: __ZNSt24uniform_int_distributionIxE10param_typeC1Exx, symObjAddr: 0x442C, symBinAddr: 0x100006B68, symSize: 0xA8 }
  - { offsetInCU: 0x34589, offset: 0x34589, size: 0x8, addend: 0x0, symName: __ZNSt24uniform_int_distributionIxEclISt23mersenne_twister_engineIjLm32ELm624ELm397ELm31ELj2567483615ELm11ELj4294967295ELm7ELj2636928640ELm15ELj4022730752ELm18ELj1812433253EEEExRT_RKNS0_10param_typeE, symObjAddr: 0x44D4, symBinAddr: 0x100006C10, symSize: 0x140 }
  - { offsetInCU: 0x345B0, offset: 0x345B0, size: 0x8, addend: 0x0, symName: __ZNSt23mersenne_twister_engineIjLm32ELm624ELm397ELm31ELj2567483615ELm11ELj4294967295ELm7ELj2636928640ELm15ELj4022730752ELm18ELj1812433253EE4seedEj, symObjAddr: 0x4360, symBinAddr: 0x100006A9C, symSize: 0xCC }
  - { offsetInCU: 0x345B8, offset: 0x345B8, size: 0x8, addend: 0x0, symName: __ZNSt24uniform_int_distributionIxE10param_typeC1Exx, symObjAddr: 0x442C, symBinAddr: 0x100006B68, symSize: 0xA8 }
  - { offsetInCU: 0x34645, offset: 0x34645, size: 0x8, addend: 0x0, symName: __ZNSt9__cxx19986vectorIxSaIxEE4backEv, symObjAddr: 0x42B8, symBinAddr: 0x1000069F4, symSize: 0xA8 }
  - { offsetInCU: 0x3464D, offset: 0x3464D, size: 0x8, addend: 0x0, symName: __ZNSt23mersenne_twister_engineIjLm32ELm624ELm397ELm31ELj2567483615ELm11ELj4294967295ELm7ELj2636928640ELm15ELj4022730752ELm18ELj1812433253EE4seedEj, symObjAddr: 0x4360, symBinAddr: 0x100006A9C, symSize: 0xCC }
  - { offsetInCU: 0x346AC, offset: 0x346AC, size: 0x8, addend: 0x0, symName: __ZNKSt9__cxx19986vectorIxSaIxEE5emptyEv, symObjAddr: 0x427C, symBinAddr: 0x1000069B8, symSize: 0x3C }
  - { offsetInCU: 0x346B4, offset: 0x346B4, size: 0x8, addend: 0x0, symName: __ZNSt9__cxx19986vectorIxSaIxEE4backEv, symObjAddr: 0x42B8, symBinAddr: 0x1000069F4, symSize: 0xA8 }
  - { offsetInCU: 0x346DD, offset: 0x346DD, size: 0x8, addend: 0x0, symName: __ZNK9__gnu_cxx17__normal_iteratorIPNSt7__debug6vectorIxSaIxEEENSt9__cxx19986vectorIS4_SaIS4_EEEEdeEv, symObjAddr: 0x4264, symBinAddr: 0x1000069A0, symSize: 0x18 }
  - { offsetInCU: 0x346E5, offset: 0x346E5, size: 0x8, addend: 0x0, symName: __ZNKSt9__cxx19986vectorIxSaIxEE5emptyEv, symObjAddr: 0x427C, symBinAddr: 0x1000069B8, symSize: 0x3C }
  - { offsetInCU: 0x3470E, offset: 0x3470E, size: 0x8, addend: 0x0, symName: __ZN11__gnu_debug16_Error_formatter11_M_iteratorINS_14_Safe_iteratorIN9__gnu_cxx17__normal_iteratorIPNSt7__debug6vectorIxSaIxEEENSt9__cxx19986vectorIS8_SaIS8_EEEEENS6_IS8_SC_EESt20forward_iterator_tagEEEERS0_RKT_PKc, symObjAddr: 0x41D0, symBinAddr: 0x10000690C, symSize: 0x94 }
  - { offsetInCU: 0x34716, offset: 0x34716, size: 0x8, addend: 0x0, symName: __ZNK9__gnu_cxx17__normal_iteratorIPNSt7__debug6vectorIxSaIxEEENSt9__cxx19986vectorIS4_SaIS4_EEEEdeEv, symObjAddr: 0x4264, symBinAddr: 0x1000069A0, symSize: 0x18 }
  - { offsetInCU: 0x34779, offset: 0x34779, size: 0x8, addend: 0x0, symName: __ZNK11__gnu_debug14_Safe_iteratorIN9__gnu_cxx17__normal_iteratorIPNSt7__debug6vectorIxSaIxEEENSt9__cxx19986vectorIS6_SaIS6_EEEEENS4_IS6_SA_EESt20forward_iterator_tagE18_M_dereferenceableEv, symObjAddr: 0x414C, symBinAddr: 0x100006888, symSize: 0x84 }
  - { offsetInCU: 0x34781, offset: 0x34781, size: 0x8, addend: 0x0, symName: __ZN11__gnu_debug16_Error_formatter11_M_iteratorINS_14_Safe_iteratorIN9__gnu_cxx17__normal_iteratorIPNSt7__debug6vectorIxSaIxEEENSt9__cxx19986vectorIS8_SaIS8_EEEEENS6_IS8_SC_EESt20forward_iterator_tagEEEERS0_RKT_PKc, symObjAddr: 0x41D0, symBinAddr: 0x10000690C, symSize: 0x94 }
  - { offsetInCU: 0x347AA, offset: 0x347AA, size: 0x8, addend: 0x0, symName: __ZN11__gnu_debug14_Safe_iteratorIN9__gnu_cxx17__normal_iteratorIPNSt7__debug6vectorIxSaIxEEENSt9__cxx19986vectorIS6_SaIS6_EEEEENS4_IS6_SA_EESt26bidirectional_iterator_tagEppEv, symObjAddr: 0x412C, symBinAddr: 0x100006868, symSize: 0x20 }
  - { offsetInCU: 0x347B2, offset: 0x347B2, size: 0x8, addend: 0x0, symName: __ZNK11__gnu_debug14_Safe_iteratorIN9__gnu_cxx17__normal_iteratorIPNSt7__debug6vectorIxSaIxEEENSt9__cxx19986vectorIS6_SaIS6_EEEEENS4_IS6_SA_EESt20forward_iterator_tagE18_M_dereferenceableEv, symObjAddr: 0x414C, symBinAddr: 0x100006888, symSize: 0x84 }
  - { offsetInCU: 0x348FA, offset: 0x348FA, size: 0x8, addend: 0x0, symName: __ZN9__gnu_cxxeqIPNSt7__debug6vectorIxSaIxEEENSt9__cxx19986vectorIS4_SaIS4_EEEEEbRKNS_17__normal_iteratorIT_T0_EESF_, symObjAddr: 0x40E8, symBinAddr: 0x100006824, symSize: 0x44 }
  - { offsetInCU: 0x34902, offset: 0x34902, size: 0x8, addend: 0x0, symName: __ZN11__gnu_debug14_Safe_iteratorIN9__gnu_cxx17__normal_iteratorIPNSt7__debug6vectorIxSaIxEEENSt9__cxx19986vectorIS6_SaIS6_EEEEENS4_IS6_SA_EESt26bidirectional_iterator_tagEppEv, symObjAddr: 0x412C, symBinAddr: 0x100006868, symSize: 0x20 }
  - { offsetInCU: 0x3484B, offset: 0x3484B, size: 0x8, addend: 0x0, symName: __ZNK11__gnu_debug14_Safe_iteratorIN9__gnu_cxx17__normal_iteratorIPNSt7__debug6vectorIxSaIxEEENSt9__cxx19986vectorIS6_SaIS6_EEEEENS4_IS6_SA_EESt20forward_iterator_tagE4baseEv, symObjAddr: 0x40D4, symBinAddr: 0x100006810, symSize: 0x14 }
  - { offsetInCU: 0x34853, offset: 0x34853, size: 0x8, addend: 0x0, symName: __ZN9__gnu_cxxeqIPNSt7__debug6vectorIxSaIxEEENSt9__cxx19986vectorIS4_SaIS4_EEEEEbRKNS_17__normal_iteratorIT_T0_EESF_, symObjAddr: 0x40E8, symBinAddr: 0x100006824, symSize: 0x44 }
  - { offsetInCU: 0x3487C, offset: 0x3487C, size: 0x8, addend: 0x0, symName: __ZN11__gnu_debug16_Error_formatter11_M_iteratorINS_14_Safe_iteratorIN9__gnu_cxx17__normal_iteratorIPNSt7__debug6vectorIxSaIxEEENSt9__cxx19986vectorIS8_SaIS8_EEEEENS6_IS8_SC_EESt26random_access_iterator_tagEEEERS0_RKT_PKc, symObjAddr: 0x4040, symBinAddr: 0x10000677C, symSize: 0x94 }
  - { offsetInCU: 0x34884, offset: 0x34884, size: 0x8, addend: 0x0, symName: __ZNK11__gnu_debug14_Safe_iteratorIN9__gnu_cxx17__normal_iteratorIPNSt7__debug6vectorIxSaIxEEENSt9__cxx19986vectorIS6_SaIS6_EEEEENS4_IS6_SA_EESt20forward_iterator_tagE4baseEv, symObjAddr: 0x40D4, symBinAddr: 0x100006810, symSize: 0x14 }
  - { offsetInCU: 0x348E7, offset: 0x348E7, size: 0x8, addend: 0x0, symName: __ZNK11__gnu_debug14_Safe_iteratorIN9__gnu_cxx17__normal_iteratorIPNSt7__debug6vectorIxSaIxEEENSt9__cxx19986vectorIS6_SaIS6_EEEEENS4_IS6_SA_EESt20forward_iterator_tagE20_M_value_initializedEv, symObjAddr: 0x3FD4, symBinAddr: 0x100006710, symSize: 0x6C }
  - { offsetInCU: 0x348EF, offset: 0x348EF, size: 0x8, addend: 0x0, symName: __ZN11__gnu_debug16_Error_formatter11_M_iteratorINS_14_Safe_iteratorIN9__gnu_cxx17__normal_iteratorIPNSt7__debug6vectorIxSaIxEEENSt9__cxx19986vectorIS8_SaIS8_EEEEENS6_IS8_SC_EESt26random_access_iterator_tagEEEERS0_RKT_PKc, symObjAddr: 0x4040, symBinAddr: 0x10000677C, symSize: 0x94 }
  - { offsetInCU: 0x34918, offset: 0x34918, size: 0x8, addend: 0x0, symName: __ZNSt9__cxx19986vectorINSt7__debug6vectorIxSaIxEEESaIS4_EE3endEv, symObjAddr: 0x3FAC, symBinAddr: 0x1000066E8, symSize: 0x28 }
  - { offsetInCU: 0x34920, offset: 0x34920, size: 0x8, addend: 0x0, symName: __ZNK11__gnu_debug14_Safe_iteratorIN9__gnu_cxx17__normal_iteratorIPNSt7__debug6vectorIxSaIxEEENSt9__cxx19986vectorIS6_SaIS6_EEEEENS4_IS6_SA_EESt20forward_iterator_tagE20_M_value_initializedEv, symObjAddr: 0x3FD4, symBinAddr: 0x100006710, symSize: 0x6C }
  - { offsetInCU: 0x34A55, offset: 0x34A55, size: 0x8, addend: 0x0, symName: __ZN11__gnu_debug14_Safe_iteratorIN9__gnu_cxx17__normal_iteratorIPNSt7__debug6vectorIxSaIxEEENSt9__cxx19986vectorIS6_SaIS6_EEEEENS4_IS6_SA_EESt26random_access_iterator_tagEC1ESC_PKNS_19_Safe_sequence_baseE, symObjAddr: 0x3F7C, symBinAddr: 0x1000066B8, symSize: 0x30 }
  - { offsetInCU: 0x34A5D, offset: 0x34A5D, size: 0x8, addend: 0x0, symName: __ZNSt9__cxx19986vectorINSt7__debug6vectorIxSaIxEEESaIS4_EE3endEv, symObjAddr: 0x3FAC, symBinAddr: 0x1000066E8, symSize: 0x28 }
  - { offsetInCU: 0x349D2, offset: 0x349D2, size: 0x8, addend: 0x0, symName: __ZNSt9__cxx19986vectorINSt7__debug6vectorIxSaIxEEESaIS4_EE5beginEv, symObjAddr: 0x3F58, symBinAddr: 0x100006694, symSize: 0x24 }
  - { offsetInCU: 0x349DA, offset: 0x349DA, size: 0x8, addend: 0x0, symName: __ZN11__gnu_debug14_Safe_iteratorIN9__gnu_cxx17__normal_iteratorIPNSt7__debug6vectorIxSaIxEEENSt9__cxx19986vectorIS6_SaIS6_EEEEENS4_IS6_SA_EESt26random_access_iterator_tagEC1ESC_PKNS_19_Safe_sequence_baseE, symObjAddr: 0x3F7C, symBinAddr: 0x1000066B8, symSize: 0x30 }
  - { offsetInCU: 0x34A03, offset: 0x34A03, size: 0x8, addend: 0x0, symName: __ZNSt9__cxx19986vectorIxSaIxEE5clearEv, symObjAddr: 0x3F2C, symBinAddr: 0x100006668, symSize: 0x2C }
  - { offsetInCU: 0x34A0B, offset: 0x34A0B, size: 0x8, addend: 0x0, symName: __ZNSt9__cxx19986vectorINSt7__debug6vectorIxSaIxEEESaIS4_EE5beginEv, symObjAddr: 0x3F58, symBinAddr: 0x100006694, symSize: 0x24 }
  - { offsetInCU: 0x34A34, offset: 0x34A34, size: 0x8, addend: 0x0, symName: __ZNSt9__cxx19986vectorINSt7__debug6vectorIxSaIxEEESaIS4_EE6assignEmRKS4_, symObjAddr: 0x3EFC, symBinAddr: 0x100006638, symSize: 0x30 }
  - { offsetInCU: 0x34A3C, offset: 0x34A3C, size: 0x8, addend: 0x0, symName: __ZNSt9__cxx19986vectorIxSaIxEE5clearEv, symObjAddr: 0x3F2C, symBinAddr: 0x100006668, symSize: 0x2C }
  - { offsetInCU: 0x34A8F, offset: 0x34A8F, size: 0x8, addend: 0x0, symName: __ZNSt9__cxx19986vectorIxSaIxEE6assignEmRKx, symObjAddr: 0x3ECC, symBinAddr: 0x100006608, symSize: 0x30 }
  - { offsetInCU: 0x34A97, offset: 0x34A97, size: 0x8, addend: 0x0, symName: __ZNSt9__cxx19986vectorINSt7__debug6vectorIxSaIxEEESaIS4_EE6assignEmRKS4_, symObjAddr: 0x3EFC, symBinAddr: 0x100006638, symSize: 0x30 }
  - { offsetInCU: 0x34AEA, offset: 0x34AEA, size: 0x8, addend: 0x0, symName: __ZNK9__gnu_cxx17__normal_iteratorIPKNSt7__debug6vectorIxSaIxEEENSt9__cxx19986vectorIS4_SaIS4_EEEE4baseEv, symObjAddr: 0x3EB8, symBinAddr: 0x1000065F4, symSize: 0x14 }
  - { offsetInCU: 0x34AF2, offset: 0x34AF2, size: 0x8, addend: 0x0, symName: __ZNSt9__cxx19986vectorIxSaIxEE6assignEmRKx, symObjAddr: 0x3ECC, symBinAddr: 0x100006608, symSize: 0x30 }
  - { offsetInCU: 0x34B1B, offset: 0x34B1B, size: 0x8, addend: 0x0, symName: __ZNSt9__cxx19986vectorINSt7__debug6vectorIxSaIxEEESaIS4_EE5clearEv, symObjAddr: 0x3E8C, symBinAddr: 0x1000065C8, symSize: 0x2C }
  - { offsetInCU: 0x34B23, offset: 0x34B23, size: 0x8, addend: 0x0, symName: __ZNK9__gnu_cxx17__normal_iteratorIPKNSt7__debug6vectorIxSaIxEEENSt9__cxx19986vectorIS4_SaIS4_EEEE4baseEv, symObjAddr: 0x3EB8, symBinAddr: 0x1000065F4, symSize: 0x14 }
  - { offsetInCU: 0x34B4C, offset: 0x34B4C, size: 0x8, addend: 0x0, symName: __ZNSt9__cxx19986vectorIxSaIxEE9push_backERKx, symObjAddr: 0x3DF4, symBinAddr: 0x100006530, symSize: 0x98 }
  - { offsetInCU: 0x34B54, offset: 0x34B54, size: 0x8, addend: 0x0, symName: __ZNSt9__cxx19986vectorINSt7__debug6vectorIxSaIxEEESaIS4_EE5clearEv, symObjAddr: 0x3E8C, symBinAddr: 0x1000065C8, symSize: 0x2C }
  - { offsetInCU: 0x34BD4, offset: 0x34BD4, size: 0x8, addend: 0x0, symName: __ZNK11__gnu_debug12_Safe_vectorINSt7__debug6vectorIxSaIxEEENSt9__cxx19986vectorIxS3_EEE24_M_requires_reallocationEm, symObjAddr: 0x3DBC, symBinAddr: 0x1000064F8, symSize: 0x38 }
  - { offsetInCU: 0x34BDC, offset: 0x34BDC, size: 0x8, addend: 0x0, symName: __ZNSt9__cxx19986vectorIxSaIxEE9push_backERKx, symObjAddr: 0x3DF4, symBinAddr: 0x100006530, symSize: 0x98 }
  - { offsetInCU: 0x34C19, offset: 0x34C19, size: 0x8, addend: 0x0, symName: __ZNSt7__debug6vectorINS0_IxSaIxEEESaIS2_EE12emplace_backIJS2_EEERS2_DpOT_, symObjAddr: 0x3D2C, symBinAddr: 0x100006468, symSize: 0x90 }
  - { offsetInCU: 0x34C21, offset: 0x34C21, size: 0x8, addend: 0x0, symName: __ZNK11__gnu_debug12_Safe_vectorINSt7__debug6vectorIxSaIxEEENSt9__cxx19986vectorIxS3_EEE24_M_requires_reallocationEm, symObjAddr: 0x3DBC, symBinAddr: 0x1000064F8, symSize: 0x38 }
  - { offsetInCU: 0x34CFD, offset: 0x34CFD, size: 0x8, addend: 0x0, symName: __ZSt4moveIRNSt7__debug6vectorIxSaIxEEEEONSt16remove_referenceIT_E4typeEOS6_, symObjAddr: 0x3D18, symBinAddr: 0x100006454, symSize: 0x14 }
  - { offsetInCU: 0x34D05, offset: 0x34D05, size: 0x8, addend: 0x0, symName: __ZNSt7__debug6vectorINS0_IxSaIxEEESaIS2_EE12emplace_backIJS2_EEERS2_DpOT_, symObjAddr: 0x3D2C, symBinAddr: 0x100006468, symSize: 0x90 }
  - { offsetInCU: 0x34D55, offset: 0x34D55, size: 0x8, addend: 0x0, symName: __ZNSt9__cxx19986vectorIxSaIxEEC2ESt16initializer_listIxERKS1_, symObjAddr: 0x3CA8, symBinAddr: 0x1000063E4, symSize: 0x70 }
  - { offsetInCU: 0x34D5D, offset: 0x34D5D, size: 0x8, addend: 0x0, symName: __ZSt4moveIRNSt7__debug6vectorIxSaIxEEEEONSt16remove_referenceIT_E4typeEOS6_, symObjAddr: 0x3D18, symBinAddr: 0x100006454, symSize: 0x14 }
  - { offsetInCU: 0x34D7C, offset: 0x34D7C, size: 0x8, addend: 0x0, symName: __ZNK9__gnu_cxx17__normal_iteratorIPxNSt9__cxx19986vectorIxSaIxEEEEdeEv, symObjAddr: 0x3C90, symBinAddr: 0x1000063CC, symSize: 0x18 }
  - { offsetInCU: 0x34D84, offset: 0x34D84, size: 0x8, addend: 0x0, symName: __ZNSt9__cxx19986vectorIxSaIxEEC2ESt16initializer_listIxERKS1_, symObjAddr: 0x3CA8, symBinAddr: 0x1000063E4, symSize: 0x70 }
  - { offsetInCU: 0x34DAD, offset: 0x34DAD, size: 0x8, addend: 0x0, symName: __ZN11__gnu_debug16_Error_formatter11_M_iteratorINS_14_Safe_iteratorIN9__gnu_cxx17__normal_iteratorIPxNSt9__cxx19986vectorIxSaIxEEEEENSt7__debug6vectorIxS8_EESt20forward_iterator_tagEEEERS0_RKT_PKc, symObjAddr: 0x3BFC, symBinAddr: 0x100006338, symSize: 0x94 }
  - { offsetInCU: 0x34DB5, offset: 0x34DB5, size: 0x8, addend: 0x0, symName: __ZNK9__gnu_cxx17__normal_iteratorIPxNSt9__cxx19986vectorIxSaIxEEEEdeEv, symObjAddr: 0x3C90, symBinAddr: 0x1000063CC, symSize: 0x18 }
  - { offsetInCU: 0x34E18, offset: 0x34E18, size: 0x8, addend: 0x0, symName: __ZNK11__gnu_debug14_Safe_iteratorIN9__gnu_cxx17__normal_iteratorIPxNSt9__cxx19986vectorIxSaIxEEEEENSt7__debug6vectorIxS6_EESt20forward_iterator_tagE18_M_dereferenceableEv, symObjAddr: 0x3B78, symBinAddr: 0x1000062B4, symSize: 0x84 }
  - { offsetInCU: 0x34E20, offset: 0x34E20, size: 0x8, addend: 0x0, symName: __ZN11__gnu_debug16_Error_formatter11_M_iteratorINS_14_Safe_iteratorIN9__gnu_cxx17__normal_iteratorIPxNSt9__cxx19986vectorIxSaIxEEEEENSt7__debug6vectorIxS8_EESt20forward_iterator_tagEEEERS0_RKT_PKc, symObjAddr: 0x3BFC, symBinAddr: 0x100006338, symSize: 0x94 }
  - { offsetInCU: 0x34E49, offset: 0x34E49, size: 0x8, addend: 0x0, symName: __ZN11__gnu_debug14_Safe_iteratorIN9__gnu_cxx17__normal_iteratorIPxNSt9__cxx19986vectorIxSaIxEEEEENSt7__debug6vectorIxS6_EESt26bidirectional_iterator_tagEppEv, symObjAddr: 0x3B58, symBinAddr: 0x100006294, symSize: 0x20 }
  - { offsetInCU: 0x34E51, offset: 0x34E51, size: 0x8, addend: 0x0, symName: __ZNK11__gnu_debug14_Safe_iteratorIN9__gnu_cxx17__normal_iteratorIPxNSt9__cxx19986vectorIxSaIxEEEEENSt7__debug6vectorIxS6_EESt20forward_iterator_tagE18_M_dereferenceableEv, symObjAddr: 0x3B78, symBinAddr: 0x1000062B4, symSize: 0x84 }
  - { offsetInCU: 0x34F38, offset: 0x34F38, size: 0x8, addend: 0x0, symName: __ZN9__gnu_cxxeqIPxNSt9__cxx19986vectorIxSaIxEEEEEbRKNS_17__normal_iteratorIT_T0_EESB_, symObjAddr: 0x3B14, symBinAddr: 0x100006250, symSize: 0x44 }
  - { offsetInCU: 0x34F40, offset: 0x34F40, size: 0x8, addend: 0x0, symName: __ZN11__gnu_debug14_Safe_iteratorIN9__gnu_cxx17__normal_iteratorIPxNSt9__cxx19986vectorIxSaIxEEEEENSt7__debug6vectorIxS6_EESt26bidirectional_iterator_tagEppEv, symObjAddr: 0x3B58, symBinAddr: 0x100006294, symSize: 0x20 }
  - { offsetInCU: 0x34EEA, offset: 0x34EEA, size: 0x8, addend: 0x0, symName: __ZNK11__gnu_debug14_Safe_iteratorIN9__gnu_cxx17__normal_iteratorIPxNSt9__cxx19986vectorIxSaIxEEEEENSt7__debug6vectorIxS6_EESt20forward_iterator_tagE4baseEv, symObjAddr: 0x3B00, symBinAddr: 0x10000623C, symSize: 0x14 }
  - { offsetInCU: 0x34EF2, offset: 0x34EF2, size: 0x8, addend: 0x0, symName: __ZN9__gnu_cxxeqIPxNSt9__cxx19986vectorIxSaIxEEEEEbRKNS_17__normal_iteratorIT_T0_EESB_, symObjAddr: 0x3B14, symBinAddr: 0x100006250, symSize: 0x44 }
  - { offsetInCU: 0x34F1B, offset: 0x34F1B, size: 0x8, addend: 0x0, symName: __ZN11__gnu_debug16_Error_formatter11_M_iteratorINS_14_Safe_iteratorIN9__gnu_cxx17__normal_iteratorIPxNSt9__cxx19986vectorIxSaIxEEEEENSt7__debug6vectorIxS8_EESt26random_access_iterator_tagEEEERS0_RKT_PKc, symObjAddr: 0x3A6C, symBinAddr: 0x1000061A8, symSize: 0x94 }
  - { offsetInCU: 0x34F23, offset: 0x34F23, size: 0x8, addend: 0x0, symName: __ZNK11__gnu_debug14_Safe_iteratorIN9__gnu_cxx17__normal_iteratorIPxNSt9__cxx19986vectorIxSaIxEEEEENSt7__debug6vectorIxS6_EESt20forward_iterator_tagE4baseEv, symObjAddr: 0x3B00, symBinAddr: 0x10000623C, symSize: 0x14 }
  - { offsetInCU: 0x34F86, offset: 0x34F86, size: 0x8, addend: 0x0, symName: __ZNK11__gnu_debug14_Safe_iteratorIN9__gnu_cxx17__normal_iteratorIPxNSt9__cxx19986vectorIxSaIxEEEEENSt7__debug6vectorIxS6_EESt20forward_iterator_tagE20_M_value_initializedEv, symObjAddr: 0x3A00, symBinAddr: 0x10000613C, symSize: 0x6C }
  - { offsetInCU: 0x34F8E, offset: 0x34F8E, size: 0x8, addend: 0x0, symName: __ZN11__gnu_debug16_Error_formatter11_M_iteratorINS_14_Safe_iteratorIN9__gnu_cxx17__normal_iteratorIPxNSt9__cxx19986vectorIxSaIxEEEEENSt7__debug6vectorIxS8_EESt26random_access_iterator_tagEEEERS0_RKT_PKc, symObjAddr: 0x3A6C, symBinAddr: 0x1000061A8, symSize: 0x94 }
  - { offsetInCU: 0x34FB7, offset: 0x34FB7, size: 0x8, addend: 0x0, symName: __ZNSt9__cxx19986vectorIxSaIxEE3endEv, symObjAddr: 0x39D8, symBinAddr: 0x100006114, symSize: 0x28 }
  - { offsetInCU: 0x34FBF, offset: 0x34FBF, size: 0x8, addend: 0x0, symName: __ZNK11__gnu_debug14_Safe_iteratorIN9__gnu_cxx17__normal_iteratorIPxNSt9__cxx19986vectorIxSaIxEEEEENSt7__debug6vectorIxS6_EESt20forward_iterator_tagE20_M_value_initializedEv, symObjAddr: 0x3A00, symBinAddr: 0x10000613C, symSize: 0x6C }
  - { offsetInCU: 0x350E2, offset: 0x350E2, size: 0x8, addend: 0x0, symName: __ZN11__gnu_debug14_Safe_iteratorIN9__gnu_cxx17__normal_iteratorIPxNSt9__cxx19986vectorIxSaIxEEEEENSt7__debug6vectorIxS6_EESt26random_access_iterator_tagEC1ES8_PKNS_19_Safe_sequence_baseE, symObjAddr: 0x39A8, symBinAddr: 0x1000060E4, symSize: 0x30 }
  - { offsetInCU: 0x350EA, offset: 0x350EA, size: 0x8, addend: 0x0, symName: __ZNSt9__cxx19986vectorIxSaIxEE3endEv, symObjAddr: 0x39D8, symBinAddr: 0x100006114, symSize: 0x28 }
  - { offsetInCU: 0x35071, offset: 0x35071, size: 0x8, addend: 0x0, symName: __ZNSt9__cxx19986vectorIxSaIxEE5beginEv, symObjAddr: 0x3984, symBinAddr: 0x1000060C0, symSize: 0x24 }
  - { offsetInCU: 0x35079, offset: 0x35079, size: 0x8, addend: 0x0, symName: __ZN11__gnu_debug14_Safe_iteratorIN9__gnu_cxx17__normal_iteratorIPxNSt9__cxx19986vectorIxSaIxEEEEENSt7__debug6vectorIxS6_EESt26random_access_iterator_tagEC1ES8_PKNS_19_Safe_sequence_baseE, symObjAddr: 0x39A8, symBinAddr: 0x1000060E4, symSize: 0x30 }
  - { offsetInCU: 0x350A2, offset: 0x350A2, size: 0x8, addend: 0x0, symName: __ZNSt9__cxx19986vectorINSt7__debug6vectorIxSaIxEEESaIS4_EEixEm, symObjAddr: 0x38CC, symBinAddr: 0x100006008, symSize: 0xB8 }
  - { offsetInCU: 0x350AA, offset: 0x350AA, size: 0x8, addend: 0x0, symName: __ZNSt9__cxx19986vectorIxSaIxEE5beginEv, symObjAddr: 0x3984, symBinAddr: 0x1000060C0, symSize: 0x24 }
  - { offsetInCU: 0x3511F, offset: 0x3511F, size: 0x8, addend: 0x0, symName: __ZN11__gnu_debug16_Error_formatter11_M_sequenceINSt7__debug6vectorINS3_IxSaIxEEESaIS5_EEEEERS0_RKT_PKc, symObjAddr: 0x3838, symBinAddr: 0x100005F74, symSize: 0x94 }
  - { offsetInCU: 0x35127, offset: 0x35127, size: 0x8, addend: 0x0, symName: __ZNSt9__cxx19986vectorINSt7__debug6vectorIxSaIxEEESaIS4_EEixEm, symObjAddr: 0x38CC, symBinAddr: 0x100006008, symSize: 0xB8 }
  - { offsetInCU: 0x3518A, offset: 0x3518A, size: 0x8, addend: 0x0, symName: __ZNSt9__cxx19986vectorIxSaIxEEixEm, symObjAddr: 0x378C, symBinAddr: 0x100005EC8, symSize: 0xAC }
  - { offsetInCU: 0x35192, offset: 0x35192, size: 0x8, addend: 0x0, symName: __ZN11__gnu_debug16_Error_formatter11_M_sequenceINSt7__debug6vectorINS3_IxSaIxEEESaIS5_EEEEERS0_RKT_PKc, symObjAddr: 0x3838, symBinAddr: 0x100005F74, symSize: 0x94 }
  - { offsetInCU: 0x35206, offset: 0x35206, size: 0x8, addend: 0x0, symName: __ZN11__gnu_debug16_Error_formatter11_M_sequenceINSt7__debug6vectorIxSaIxEEEEERS0_RKT_PKc, symObjAddr: 0x36F8, symBinAddr: 0x100005E34, symSize: 0x94 }
  - { offsetInCU: 0x3520E, offset: 0x3520E, size: 0x8, addend: 0x0, symName: __ZNSt9__cxx19986vectorIxSaIxEEixEm, symObjAddr: 0x378C, symBinAddr: 0x100005EC8, symSize: 0xAC }
  - { offsetInCU: 0x35271, offset: 0x35271, size: 0x8, addend: 0x0, symName: __ZN11__gnu_debug12_Safe_vectorINSt7__debug6vectorIxSaIxEEENSt9__cxx19986vectorIxS3_EEE29_M_update_guaranteed_capacityEv, symObjAddr: 0x3690, symBinAddr: 0x100005DCC, symSize: 0x68 }
  - { offsetInCU: 0x35279, offset: 0x35279, size: 0x8, addend: 0x0, symName: __ZN11__gnu_debug16_Error_formatter11_M_sequenceINSt7__debug6vectorIxSaIxEEEEERS0_RKT_PKc, symObjAddr: 0x36F8, symBinAddr: 0x100005E34, symSize: 0x94 }
  - { offsetInCU: 0x352A2, offset: 0x352A2, size: 0x8, addend: 0x0, symName: __ZNSt9__cxx199812_Vector_baseIxSaIxEE13_M_deallocateEPxm, symObjAddr: 0x3600, symBinAddr: 0x100005D3C, symSize: 0x90 }
  - { offsetInCU: 0x352AA, offset: 0x352AA, size: 0x8, addend: 0x0, symName: __ZN11__gnu_debug12_Safe_vectorINSt7__debug6vectorIxSaIxEEENSt9__cxx19986vectorIxS3_EEE29_M_update_guaranteed_capacityEv, symObjAddr: 0x3690, symBinAddr: 0x100005DCC, symSize: 0x68 }
  - { offsetInCU: 0x353DA, offset: 0x353DA, size: 0x8, addend: 0x0, symName: __ZNSt9__cxx199812_Vector_baseIxSaIxEE17_Vector_impl_dataC2Ev, symObjAddr: 0x35D4, symBinAddr: 0x100005D10, symSize: 0x2C }
  - { offsetInCU: 0x353E2, offset: 0x353E2, size: 0x8, addend: 0x0, symName: __ZNSt9__cxx199812_Vector_baseIxSaIxEE13_M_deallocateEPxm, symObjAddr: 0x3600, symBinAddr: 0x100005D3C, symSize: 0x90 }
  - { offsetInCU: 0x35425, offset: 0x35425, size: 0x8, addend: 0x0, symName: __ZNSt9__cxx199812_Vector_baseIxSaIxEE19_M_get_Tp_allocatorEv, symObjAddr: 0x35C0, symBinAddr: 0x100005CFC, symSize: 0x14 }
  - { offsetInCU: 0x3542D, offset: 0x3542D, size: 0x8, addend: 0x0, symName: __ZNSt9__cxx199812_Vector_baseIxSaIxEE17_Vector_impl_dataC2Ev, symObjAddr: 0x35D4, symBinAddr: 0x100005D10, symSize: 0x2C }
  - { offsetInCU: 0x35456, offset: 0x35456, size: 0x8, addend: 0x0, symName: __ZN11__gnu_debug12_Safe_vectorINSt7__debug6vectorINS2_IxSaIxEEESaIS4_EEENSt9__cxx19986vectorIS4_S5_EEE29_M_update_guaranteed_capacityEv, symObjAddr: 0x3558, symBinAddr: 0x100005C94, symSize: 0x68 }
  - { offsetInCU: 0x3545E, offset: 0x3545E, size: 0x8, addend: 0x0, symName: __ZNSt9__cxx199812_Vector_baseIxSaIxEE19_M_get_Tp_allocatorEv, symObjAddr: 0x35C0, symBinAddr: 0x100005CFC, symSize: 0x14 }
  - { offsetInCU: 0x354DF, offset: 0x354DF, size: 0x8, addend: 0x0, symName: __ZNSt9__cxx199812_Vector_baseINSt7__debug6vectorIxSaIxEEESaIS4_EE19_M_get_Tp_allocatorEv, symObjAddr: 0x3544, symBinAddr: 0x100005C80, symSize: 0x14 }
  - { offsetInCU: 0x354E7, offset: 0x354E7, size: 0x8, addend: 0x0, symName: __ZN11__gnu_debug12_Safe_vectorINSt7__debug6vectorINS2_IxSaIxEEESaIS4_EEENSt9__cxx19986vectorIS4_S5_EEE29_M_update_guaranteed_capacityEv, symObjAddr: 0x3558, symBinAddr: 0x100005C94, symSize: 0x68 }
  - { offsetInCU: 0x35510, offset: 0x35510, size: 0x8, addend: 0x0, symName: __ZNSt9__cxx199812_Vector_baseINSt7__debug6vectorIxSaIxEEESaIS4_EE13_M_deallocateEPS4_m, symObjAddr: 0x34B4, symBinAddr: 0x100005BF0, symSize: 0x90 }
  - { offsetInCU: 0x35518, offset: 0x35518, size: 0x8, addend: 0x0, symName: __ZNSt9__cxx199812_Vector_baseINSt7__debug6vectorIxSaIxEEESaIS4_EE19_M_get_Tp_allocatorEv, symObjAddr: 0x3544, symBinAddr: 0x100005C80, symSize: 0x14 }
  - { offsetInCU: 0x35664, offset: 0x35664, size: 0x8, addend: 0x0, symName: __ZNSt9__cxx199812_Vector_baseINSt7__debug6vectorIxSaIxEEESaIS4_EE17_Vector_impl_dataC2Ev, symObjAddr: 0x3488, symBinAddr: 0x100005BC4, symSize: 0x2C }
  - { offsetInCU: 0x3566C, offset: 0x3566C, size: 0x8, addend: 0x0, symName: __ZNSt9__cxx199812_Vector_baseINSt7__debug6vectorIxSaIxEEESaIS4_EE13_M_deallocateEPS4_m, symObjAddr: 0x34B4, symBinAddr: 0x100005BF0, symSize: 0x90 }
  - { offsetInCU: 0x35656, offset: 0x35656, size: 0x8, addend: 0x0, symName: __ZN11__gnu_debug16_Error_formatter11_M_iteratorIPKxEERS0_RKT_PKc, symObjAddr: 0x33F4, symBinAddr: 0x100005B30, symSize: 0x94 }
  - { offsetInCU: 0x3565E, offset: 0x3565E, size: 0x8, addend: 0x0, symName: __ZNSt9__cxx199812_Vector_baseINSt7__debug6vectorIxSaIxEEESaIS4_EE17_Vector_impl_dataC2Ev, symObjAddr: 0x3488, symBinAddr: 0x100005BC4, symSize: 0x2C }
  - { offsetInCU: 0x35724, offset: 0x35724, size: 0x8, addend: 0x0, symName: __ZNSt7__debug6vectorIxSaIxEEC1EmRKS1_, symObjAddr: 0x338C, symBinAddr: 0x100005AC8, symSize: 0x68 }
  - { offsetInCU: 0x3572C, offset: 0x3572C, size: 0x8, addend: 0x0, symName: __ZN11__gnu_debug16_Error_formatter11_M_iteratorIPKxEERS0_RKT_PKc, symObjAddr: 0x33F4, symBinAddr: 0x100005B30, symSize: 0x94 }
  - { offsetInCU: 0x35748, offset: 0x35748, size: 0x8, addend: 0x0, symName: __ZNSt24uniform_int_distributionIxEclISt23mersenne_twister_engineIjLm32ELm624ELm397ELm31ELj2567483615ELm11ELj4294967295ELm7ELj2636928640ELm15ELj4022730752ELm18ELj1812433253EEEExRT_, symObjAddr: 0x3360, symBinAddr: 0x100005A9C, symSize: 0x2C }
  - { offsetInCU: 0x35750, offset: 0x35750, size: 0x8, addend: 0x0, symName: __ZNSt7__debug6vectorIxSaIxEEC1EmRKS1_, symObjAddr: 0x338C, symBinAddr: 0x100005AC8, symSize: 0x68 }
  - { offsetInCU: 0x357FF, offset: 0x357FF, size: 0x8, addend: 0x0, symName: __ZNSt24uniform_int_distributionIxEC1Exx, symObjAddr: 0x3330, symBinAddr: 0x100005A6C, symSize: 0x30 }
  - { offsetInCU: 0x35807, offset: 0x35807, size: 0x8, addend: 0x0, symName: __ZNSt24uniform_int_distributionIxEclISt23mersenne_twister_engineIjLm32ELm624ELm397ELm31ELj2567483615ELm11ELj4294967295ELm7ELj2636928640ELm15ELj4022730752ELm18ELj1812433253EEEExRT_, symObjAddr: 0x3360, symBinAddr: 0x100005A9C, symSize: 0x2C }
  - { offsetInCU: 0x358DE, offset: 0x358DE, size: 0x8, addend: 0x0, symName: __ZNSt23mersenne_twister_engineIjLm32ELm624ELm397ELm31ELj2567483615ELm11ELj4294967295ELm7ELj2636928640ELm15ELj4022730752ELm18ELj1812433253EEC1Ej, symObjAddr: 0x3308, symBinAddr: 0x100005A44, symSize: 0x28 }
  - { offsetInCU: 0x358E6, offset: 0x358E6, size: 0x8, addend: 0x0, symName: __ZNSt24uniform_int_distributionIxEC1Exx, symObjAddr: 0x3330, symBinAddr: 0x100005A6C, symSize: 0x30 }
  - { offsetInCU: 0x358B8, offset: 0x358B8, size: 0x8, addend: 0x0, symName: __ZSt3minIxERKT_S2_S2_, symObjAddr: 0x32D0, symBinAddr: 0x100005A0C, symSize: 0x38 }
  - { offsetInCU: 0x358C0, offset: 0x358C0, size: 0x8, addend: 0x0, symName: __ZNSt23mersenne_twister_engineIjLm32ELm624ELm397ELm31ELj2567483615ELm11ELj4294967295ELm7ELj2636928640ELm15ELj4022730752ELm18ELj1812433253EEC1Ej, symObjAddr: 0x3308, symBinAddr: 0x100005A44, symSize: 0x28 }
  - { offsetInCU: 0x358EB, offset: 0x358EB, size: 0x8, addend: 0x0, symName: __ZNSt7__debug6vectorIxSaIxEE4backEv, symObjAddr: 0x3204, symBinAddr: 0x100005940, symSize: 0xCC }
  - { offsetInCU: 0x358F3, offset: 0x358F3, size: 0x8, addend: 0x0, symName: __ZSt3minIxERKT_S2_S2_, symObjAddr: 0x32D0, symBinAddr: 0x100005A0C, symSize: 0x38 }
  - { offsetInCU: 0x35935, offset: 0x35935, size: 0x8, addend: 0x0, symName: __ZNK11__gnu_debug14_Safe_iteratorIN9__gnu_cxx17__normal_iteratorIPNSt7__debug6vectorIxSaIxEEENSt9__cxx19986vectorIS6_SaIS6_EEEEENS4_IS6_SA_EESt20forward_iterator_tagEdeEv, symObjAddr: 0x3130, symBinAddr: 0x10000586C, symSize: 0xD4 }
  - { offsetInCU: 0x3593D, offset: 0x3593D, size: 0x8, addend: 0x0, symName: __ZNSt7__debug6vectorIxSaIxEE4backEv, symObjAddr: 0x3204, symBinAddr: 0x100005940, symSize: 0xCC }
  - { offsetInCU: 0x3599D, offset: 0x3599D, size: 0x8, addend: 0x0, symName: __ZN11__gnu_debug14_Safe_iteratorIN9__gnu_cxx17__normal_iteratorIPNSt7__debug6vectorIxSaIxEEENSt9__cxx19986vectorIS6_SaIS6_EEEEENS4_IS6_SA_EESt26random_access_iterator_tagEppEv, symObjAddr: 0x3110, symBinAddr: 0x10000584C, symSize: 0x20 }
  - { offsetInCU: 0x359A5, offset: 0x359A5, size: 0x8, addend: 0x0, symName: __ZNK11__gnu_debug14_Safe_iteratorIN9__gnu_cxx17__normal_iteratorIPNSt7__debug6vectorIxSaIxEEENSt9__cxx19986vectorIS6_SaIS6_EEEEENS4_IS6_SA_EESt20forward_iterator_tagEdeEv, symObjAddr: 0x3130, symBinAddr: 0x10000586C, symSize: 0xD4 }
  - { offsetInCU: 0x35A90, offset: 0x35A90, size: 0x8, addend: 0x0, symName: __ZN11__gnu_debugeqERKNS_14_Safe_iteratorIN9__gnu_cxx17__normal_iteratorIPNSt7__debug6vectorIxSaIxEEENSt9__cxx19986vectorIS6_SaIS6_EEEEENS4_IS6_SA_EESt26random_access_iterator_tagEESH_, symObjAddr: 0x2E24, symBinAddr: 0x100005560, symSize: 0x2EC }
  - { offsetInCU: 0x35A98, offset: 0x35A98, size: 0x8, addend: 0x0, symName: __ZN11__gnu_debug14_Safe_iteratorIN9__gnu_cxx17__normal_iteratorIPNSt7__debug6vectorIxSaIxEEENSt9__cxx19986vectorIS6_SaIS6_EEEEENS4_IS6_SA_EESt26random_access_iterator_tagEppEv, symObjAddr: 0x3110, symBinAddr: 0x10000584C, symSize: 0x20 }
  - { offsetInCU: 0x35A65, offset: 0x35A65, size: 0x8, addend: 0x0, symName: __ZNSt7__debug6vectorINS0_IxSaIxEEESaIS2_EE3endEv, symObjAddr: 0x2DE0, symBinAddr: 0x10000551C, symSize: 0x44 }
  - { offsetInCU: 0x35A6D, offset: 0x35A6D, size: 0x8, addend: 0x0, symName: __ZN11__gnu_debugeqERKNS_14_Safe_iteratorIN9__gnu_cxx17__normal_iteratorIPNSt7__debug6vectorIxSaIxEEENSt9__cxx19986vectorIS6_SaIS6_EEEEENS4_IS6_SA_EESt26random_access_iterator_tagEESH_, symObjAddr: 0x2E24, symBinAddr: 0x100005560, symSize: 0x2EC }
  - { offsetInCU: 0x35A96, offset: 0x35A96, size: 0x8, addend: 0x0, symName: __ZNSt7__debug6vectorINS0_IxSaIxEEESaIS2_EE5beginEv, symObjAddr: 0x2D9C, symBinAddr: 0x1000054D8, symSize: 0x44 }
  - { offsetInCU: 0x35A9E, offset: 0x35A9E, size: 0x8, addend: 0x0, symName: __ZNSt7__debug6vectorINS0_IxSaIxEEESaIS2_EE3endEv, symObjAddr: 0x2DE0, symBinAddr: 0x10000551C, symSize: 0x44 }
  - { offsetInCU: 0x35AC7, offset: 0x35AC7, size: 0x8, addend: 0x0, symName: __ZNSt7__debug6vectorIxSaIxEE5clearEv, symObjAddr: 0x2D70, symBinAddr: 0x1000054AC, symSize: 0x2C }
  - { offsetInCU: 0x35ACF, offset: 0x35ACF, size: 0x8, addend: 0x0, symName: __ZNSt7__debug6vectorINS0_IxSaIxEEESaIS2_EE5beginEv, symObjAddr: 0x2D9C, symBinAddr: 0x1000054D8, symSize: 0x44 }
  - { offsetInCU: 0x35AF8, offset: 0x35AF8, size: 0x8, addend: 0x0, symName: __ZNSt7__debug6vectorINS0_IxSaIxEEESaIS2_EE6assignEmRKS2_, symObjAddr: 0x2D28, symBinAddr: 0x100005464, symSize: 0x48 }
  - { offsetInCU: 0x35B00, offset: 0x35B00, size: 0x8, addend: 0x0, symName: __ZNSt7__debug6vectorIxSaIxEE5clearEv, symObjAddr: 0x2D70, symBinAddr: 0x1000054AC, symSize: 0x2C }
  - { offsetInCU: 0x35B53, offset: 0x35B53, size: 0x8, addend: 0x0, symName: __ZNSt7__debug6vectorIxSaIxEE6assignEmRKx, symObjAddr: 0x2CE0, symBinAddr: 0x10000541C, symSize: 0x48 }
  - { offsetInCU: 0x35B5B, offset: 0x35B5B, size: 0x8, addend: 0x0, symName: __ZNSt7__debug6vectorINS0_IxSaIxEEESaIS2_EE6assignEmRKS2_, symObjAddr: 0x2D28, symBinAddr: 0x100005464, symSize: 0x48 }
  - { offsetInCU: 0x35CD4, offset: 0x35CD4, size: 0x8, addend: 0x0, symName: __ZN9__gnu_cxxeqIPKNSt7__debug6vectorIxSaIxEEENSt9__cxx19986vectorIS4_SaIS4_EEEEEbRKNS_17__normal_iteratorIT_T0_EESG_, symObjAddr: 0x2C9C, symBinAddr: 0x1000053D8, symSize: 0x44 }
  - { offsetInCU: 0x35CDC, offset: 0x35CDC, size: 0x8, addend: 0x0, symName: __ZNSt7__debug6vectorIxSaIxEE6assignEmRKx, symObjAddr: 0x2CE0, symBinAddr: 0x10000541C, symSize: 0x48 }
  - { offsetInCU: 0x35C28, offset: 0x35C28, size: 0x8, addend: 0x0, symName: __ZNKSt9__cxx19986vectorINSt7__debug6vectorIxSaIxEEESaIS4_EE3endEv, symObjAddr: 0x2C74, symBinAddr: 0x1000053B0, symSize: 0x28 }
  - { offsetInCU: 0x35C30, offset: 0x35C30, size: 0x8, addend: 0x0, symName: __ZN9__gnu_cxxeqIPKNSt7__debug6vectorIxSaIxEEENSt9__cxx19986vectorIS4_SaIS4_EEEEEbRKNS_17__normal_iteratorIT_T0_EESG_, symObjAddr: 0x2C9C, symBinAddr: 0x1000053D8, symSize: 0x44 }
  - { offsetInCU: 0x35C59, offset: 0x35C59, size: 0x8, addend: 0x0, symName: __ZNSt7__debug6vectorINS0_IxSaIxEEESaIS2_EE5clearEv, symObjAddr: 0x2C48, symBinAddr: 0x100005384, symSize: 0x2C }
  - { offsetInCU: 0x35C61, offset: 0x35C61, size: 0x8, addend: 0x0, symName: __ZNKSt9__cxx19986vectorINSt7__debug6vectorIxSaIxEEESaIS4_EE3endEv, symObjAddr: 0x2C74, symBinAddr: 0x1000053B0, symSize: 0x28 }
  - { offsetInCU: 0x35CD3, offset: 0x35CD3, size: 0x8, addend: 0x0, symName: __ZNSt7__debug6vectorIxSaIxEE9push_backERKx, symObjAddr: 0x2BC8, symBinAddr: 0x100005304, symSize: 0x80 }
  - { offsetInCU: 0x35CDB, offset: 0x35CDB, size: 0x8, addend: 0x0, symName: __ZNSt7__debug6vectorINS0_IxSaIxEEESaIS2_EE5clearEv, symObjAddr: 0x2C48, symBinAddr: 0x100005384, symSize: 0x2C }
  - { offsetInCU: 0x35D2E, offset: 0x35D2E, size: 0x8, addend: 0x0, symName: __ZNSt7__debug6vectorINS0_IxSaIxEEESaIS2_EE9push_backIS2_EEN9__gnu_cxx11__enable_ifIXntsrSt10__are_sameIT_bE7__valueEvE6__typeEOS2_, symObjAddr: 0x2B98, symBinAddr: 0x1000052D4, symSize: 0x30 }
  - { offsetInCU: 0x35D36, offset: 0x35D36, size: 0x8, addend: 0x0, symName: __ZNSt7__debug6vectorIxSaIxEE9push_backERKx, symObjAddr: 0x2BC8, symBinAddr: 0x100005304, symSize: 0x80 }
  - { offsetInCU: 0x35DFB, offset: 0x35DFB, size: 0x8, addend: 0x0, symName: __ZNSt7__debug6vectorIxSaIxEEC1ESt16initializer_listIxERKS1_, symObjAddr: 0x2B34, symBinAddr: 0x100005270, symSize: 0x64 }
  - { offsetInCU: 0x35E03, offset: 0x35E03, size: 0x8, addend: 0x0, symName: __ZNSt7__debug6vectorINS0_IxSaIxEEESaIS2_EE9push_backIS2_EEN9__gnu_cxx11__enable_ifIXntsrSt10__are_sameIT_bE7__valueEvE6__typeEOS2_, symObjAddr: 0x2B98, symBinAddr: 0x1000052D4, symSize: 0x30 }
  - { offsetInCU: 0x35E24, offset: 0x35E24, size: 0x8, addend: 0x0, symName: __ZNKSt9__cxx19986vectorIxSaIxEE4sizeEv, symObjAddr: 0x2B0C, symBinAddr: 0x100005248, symSize: 0x28 }
  - { offsetInCU: 0x35E2C, offset: 0x35E2C, size: 0x8, addend: 0x0, symName: __ZNSt7__debug6vectorIxSaIxEEC1ESt16initializer_listIxERKS1_, symObjAddr: 0x2B34, symBinAddr: 0x100005270, symSize: 0x64 }
  - { offsetInCU: 0x35E55, offset: 0x35E55, size: 0x8, addend: 0x0, symName: __ZNK11__gnu_debug14_Safe_iteratorIN9__gnu_cxx17__normal_iteratorIPxNSt9__cxx19986vectorIxSaIxEEEEENSt7__debug6vectorIxS6_EESt20forward_iterator_tagEdeEv, symObjAddr: 0x2A38, symBinAddr: 0x100005174, symSize: 0xD4 }
  - { offsetInCU: 0x35E5D, offset: 0x35E5D, size: 0x8, addend: 0x0, symName: __ZNKSt9__cxx19986vectorIxSaIxEE4sizeEv, symObjAddr: 0x2B0C, symBinAddr: 0x100005248, symSize: 0x28 }
  - { offsetInCU: 0x35EBD, offset: 0x35EBD, size: 0x8, addend: 0x0, symName: __ZN11__gnu_debug14_Safe_iteratorIN9__gnu_cxx17__normal_iteratorIPxNSt9__cxx19986vectorIxSaIxEEEEENSt7__debug6vectorIxS6_EESt26random_access_iterator_tagEppEv, symObjAddr: 0x2A18, symBinAddr: 0x100005154, symSize: 0x20 }
  - { offsetInCU: 0x35EC5, offset: 0x35EC5, size: 0x8, addend: 0x0, symName: __ZNK11__gnu_debug14_Safe_iteratorIN9__gnu_cxx17__normal_iteratorIPxNSt9__cxx19986vectorIxSaIxEEEEENSt7__debug6vectorIxS6_EESt20forward_iterator_tagEdeEv, symObjAddr: 0x2A38, symBinAddr: 0x100005174, symSize: 0xD4 }
  - { offsetInCU: 0x35F9E, offset: 0x35F9E, size: 0x8, addend: 0x0, symName: __ZN11__gnu_debugeqERKNS_14_Safe_iteratorIN9__gnu_cxx17__normal_iteratorIPxNSt9__cxx19986vectorIxSaIxEEEEENSt7__debug6vectorIxS6_EESt26random_access_iterator_tagEESF_, symObjAddr: 0x272C, symBinAddr: 0x100004E68, symSize: 0x2EC }
  - { offsetInCU: 0x35FA6, offset: 0x35FA6, size: 0x8, addend: 0x0, symName: __ZN11__gnu_debug14_Safe_iteratorIN9__gnu_cxx17__normal_iteratorIPxNSt9__cxx19986vectorIxSaIxEEEEENSt7__debug6vectorIxS6_EESt26random_access_iterator_tagEppEv, symObjAddr: 0x2A18, symBinAddr: 0x100005154, symSize: 0x20 }
  - { offsetInCU: 0x35F85, offset: 0x35F85, size: 0x8, addend: 0x0, symName: __ZNSt7__debug6vectorIxSaIxEE3endEv, symObjAddr: 0x26E8, symBinAddr: 0x100004E24, symSize: 0x44 }
  - { offsetInCU: 0x35F8D, offset: 0x35F8D, size: 0x8, addend: 0x0, symName: __ZN11__gnu_debugeqERKNS_14_Safe_iteratorIN9__gnu_cxx17__normal_iteratorIPxNSt9__cxx19986vectorIxSaIxEEEEENSt7__debug6vectorIxS6_EESt26random_access_iterator_tagEESF_, symObjAddr: 0x272C, symBinAddr: 0x100004E68, symSize: 0x2EC }
  - { offsetInCU: 0x35FB6, offset: 0x35FB6, size: 0x8, addend: 0x0, symName: __ZNSt7__debug6vectorIxSaIxEE5beginEv, symObjAddr: 0x26A4, symBinAddr: 0x100004DE0, symSize: 0x44 }
  - { offsetInCU: 0x35FBE, offset: 0x35FBE, size: 0x8, addend: 0x0, symName: __ZNSt7__debug6vectorIxSaIxEE3endEv, symObjAddr: 0x26E8, symBinAddr: 0x100004E24, symSize: 0x44 }
  - { offsetInCU: 0x35FE7, offset: 0x35FE7, size: 0x8, addend: 0x0, symName: __ZNSt7__debug6vectorINS0_IxSaIxEEESaIS2_EEixEm, symObjAddr: 0x257C, symBinAddr: 0x100004CB8, symSize: 0x128 }
  - { offsetInCU: 0x35FEF, offset: 0x35FEF, size: 0x8, addend: 0x0, symName: __ZNSt7__debug6vectorIxSaIxEE5beginEv, symObjAddr: 0x26A4, symBinAddr: 0x100004DE0, symSize: 0x44 }
  - { offsetInCU: 0x36064, offset: 0x36064, size: 0x8, addend: 0x0, symName: __ZNSt7__debug6vectorIxSaIxEEixEm, symObjAddr: 0x2454, symBinAddr: 0x100004B90, symSize: 0x128 }
  - { offsetInCU: 0x3606C, offset: 0x3606C, size: 0x8, addend: 0x0, symName: __ZNSt7__debug6vectorINS0_IxSaIxEEESaIS2_EEixEm, symObjAddr: 0x257C, symBinAddr: 0x100004CB8, symSize: 0x128 }
  - { offsetInCU: 0x36156, offset: 0x36156, size: 0x8, addend: 0x0, symName: __ZN11__gnu_debug12_Safe_vectorINSt7__debug6vectorIxSaIxEEENSt9__cxx19986vectorIxS3_EEEC1Ev, symObjAddr: 0x242C, symBinAddr: 0x100004B68, symSize: 0x28 }
  - { offsetInCU: 0x3615E, offset: 0x3615E, size: 0x8, addend: 0x0, symName: __ZNSt7__debug6vectorIxSaIxEEixEm, symObjAddr: 0x2454, symBinAddr: 0x100004B90, symSize: 0x128 }
  - { offsetInCU: 0x36186, offset: 0x36186, size: 0x8, addend: 0x0, symName: __ZN11__gnu_debug12_Safe_vectorINSt7__debug6vectorIxSaIxEEENSt9__cxx19986vectorIxS3_EEEC2Ev, symObjAddr: 0x2404, symBinAddr: 0x100004B40, symSize: 0x28 }
  - { offsetInCU: 0x3618E, offset: 0x3618E, size: 0x8, addend: 0x0, symName: __ZN11__gnu_debug12_Safe_vectorINSt7__debug6vectorIxSaIxEEENSt9__cxx19986vectorIxS3_EEEC1Ev, symObjAddr: 0x242C, symBinAddr: 0x100004B68, symSize: 0x28 }
  - { offsetInCU: 0x361AF, offset: 0x361AF, size: 0x8, addend: 0x0, symName: __ZNSt9__cxx199812_Vector_baseIxSaIxEED2Ev, symObjAddr: 0x23B4, symBinAddr: 0x100004AF0, symSize: 0x50 }
  - { offsetInCU: 0x361B7, offset: 0x361B7, size: 0x8, addend: 0x0, symName: __ZN11__gnu_debug12_Safe_vectorINSt7__debug6vectorIxSaIxEEENSt9__cxx19986vectorIxS3_EEEC2Ev, symObjAddr: 0x2404, symBinAddr: 0x100004B40, symSize: 0x28 }
  - { offsetInCU: 0x36232, offset: 0x36232, size: 0x8, addend: 0x0, symName: __ZNSt9__cxx199812_Vector_baseIxSaIxEE12_Vector_implC1Ev, symObjAddr: 0x237C, symBinAddr: 0x100004AB8, symSize: 0x38 }
  - { offsetInCU: 0x3623A, offset: 0x3623A, size: 0x8, addend: 0x0, symName: __ZNSt9__cxx199812_Vector_baseIxSaIxEED2Ev, symObjAddr: 0x23B4, symBinAddr: 0x100004AF0, symSize: 0x50 }
  - { offsetInCU: 0x362C7, offset: 0x362C7, size: 0x8, addend: 0x0, symName: __ZNSt9__cxx19986vectorIxSaIxEED1Ev, symObjAddr: 0x2320, symBinAddr: 0x100004A5C, symSize: 0x5C }
  - { offsetInCU: 0x362CF, offset: 0x362CF, size: 0x8, addend: 0x0, symName: __ZNSt9__cxx199812_Vector_baseIxSaIxEE12_Vector_implC1Ev, symObjAddr: 0x237C, symBinAddr: 0x100004AB8, symSize: 0x38 }
  - { offsetInCU: 0x36339, offset: 0x36339, size: 0x8, addend: 0x0, symName: __ZNSt9__cxx19986vectorIxSaIxEED2Ev, symObjAddr: 0x22C4, symBinAddr: 0x100004A00, symSize: 0x5C }
  - { offsetInCU: 0x36341, offset: 0x36341, size: 0x8, addend: 0x0, symName: __ZNSt9__cxx19986vectorIxSaIxEED1Ev, symObjAddr: 0x2320, symBinAddr: 0x100004A5C, symSize: 0x5C }
  - { offsetInCU: 0x3640E, offset: 0x3640E, size: 0x8, addend: 0x0, symName: __ZN11__gnu_debug12_Safe_vectorINSt7__debug6vectorINS2_IxSaIxEEESaIS4_EEENSt9__cxx19986vectorIS4_S5_EEEC2Ev, symObjAddr: 0x229C, symBinAddr: 0x1000049D8, symSize: 0x28 }
  - { offsetInCU: 0x36416, offset: 0x36416, size: 0x8, addend: 0x0, symName: __ZNSt9__cxx19986vectorIxSaIxEED2Ev, symObjAddr: 0x22C4, symBinAddr: 0x100004A00, symSize: 0x5C }
  - { offsetInCU: 0x3643C, offset: 0x3643C, size: 0x8, addend: 0x0, symName: __ZNSt9__cxx19986vectorINSt7__debug6vectorIxSaIxEEESaIS4_EED1Ev, symObjAddr: 0x2240, symBinAddr: 0x10000497C, symSize: 0x5C }
  - { offsetInCU: 0x36444, offset: 0x36444, size: 0x8, addend: 0x0, symName: __ZN11__gnu_debug12_Safe_vectorINSt7__debug6vectorINS2_IxSaIxEEESaIS4_EEENSt9__cxx19986vectorIS4_S5_EEEC2Ev, symObjAddr: 0x229C, symBinAddr: 0x1000049D8, symSize: 0x28 }
  - { offsetInCU: 0x364AE, offset: 0x364AE, size: 0x8, addend: 0x0, symName: __ZNSt9__cxx19986vectorINSt7__debug6vectorIxSaIxEEESaIS4_EED2Ev, symObjAddr: 0x21E4, symBinAddr: 0x100004920, symSize: 0x5C }
  - { offsetInCU: 0x364B6, offset: 0x364B6, size: 0x8, addend: 0x0, symName: __ZNSt9__cxx19986vectorINSt7__debug6vectorIxSaIxEEESaIS4_EED1Ev, symObjAddr: 0x2240, symBinAddr: 0x10000497C, symSize: 0x5C }
  - { offsetInCU: 0x36551, offset: 0x36551, size: 0x8, addend: 0x0, symName: __ZNSt9__cxx199812_Vector_baseINSt7__debug6vectorIxSaIxEEESaIS4_EED2Ev, symObjAddr: 0x2180, symBinAddr: 0x1000048BC, symSize: 0x64 }
  - { offsetInCU: 0x36559, offset: 0x36559, size: 0x8, addend: 0x0, symName: __ZNSt9__cxx19986vectorINSt7__debug6vectorIxSaIxEEESaIS4_EED2Ev, symObjAddr: 0x21E4, symBinAddr: 0x100004920, symSize: 0x5C }
  - { offsetInCU: 0x365D4, offset: 0x365D4, size: 0x8, addend: 0x0, symName: __ZNSt9__cxx199812_Vector_baseINSt7__debug6vectorIxSaIxEEESaIS4_EE12_Vector_implC1Ev, symObjAddr: 0x2148, symBinAddr: 0x100004884, symSize: 0x38 }
  - { offsetInCU: 0x365DC, offset: 0x365DC, size: 0x8, addend: 0x0, symName: __ZNSt9__cxx199812_Vector_baseINSt7__debug6vectorIxSaIxEEESaIS4_EED2Ev, symObjAddr: 0x2180, symBinAddr: 0x1000048BC, symSize: 0x64 }
  - { offsetInCU: 0x36600, offset: 0x36600, size: 0x8, addend: 0x0, symName: __ZNKSt6chrono10time_pointINS_3_V212steady_clockENS_8durationIxSt5ratioILl1ELl1000000000EEEEE16time_since_epochEv, symObjAddr: 0x2130, symBinAddr: 0x10000486C, symSize: 0x18 }
  - { offsetInCU: 0x36608, offset: 0x36608, size: 0x8, addend: 0x0, symName: __ZNSt9__cxx199812_Vector_baseINSt7__debug6vectorIxSaIxEEESaIS4_EE12_Vector_implC1Ev, symObjAddr: 0x2148, symBinAddr: 0x100004884, symSize: 0x38 }
  - { offsetInCU: 0x36663, offset: 0x36663, size: 0x8, addend: 0x0, symName: __ZSt3maxImERKT_S2_S2_, symObjAddr: 0x20F8, symBinAddr: 0x100004834, symSize: 0x38 }
  - { offsetInCU: 0x3666B, offset: 0x3666B, size: 0x8, addend: 0x0, symName: __ZNKSt6chrono10time_pointINS_3_V212steady_clockENS_8durationIxSt5ratioILl1ELl1000000000EEEEE16time_since_epochEv, symObjAddr: 0x2130, symBinAddr: 0x10000486C, symSize: 0x18 }
  - { offsetInCU: 0x3669E, offset: 0x3669E, size: 0x8, addend: 0x0, symName: _main, symObjAddr: 0x1DE4, symBinAddr: 0x100004520, symSize: 0x314 }
  - { offsetInCU: 0x366A6, offset: 0x366A6, size: 0x8, addend: 0x0, symName: __ZSt3maxImERKT_S2_S2_, symObjAddr: 0x20F8, symBinAddr: 0x100004834, symSize: 0x38 }
  - { offsetInCU: 0x36895, offset: 0x36895, size: 0x8, addend: 0x0, symName: __Z5solvev, symObjAddr: 0x18B0, symBinAddr: 0x100003FEC, symSize: 0x534 }
  - { offsetInCU: 0x3689D, offset: 0x3689D, size: 0x8, addend: 0x0, symName: _main, symObjAddr: 0x1DE4, symBinAddr: 0x100004520, symSize: 0x314 }
  - { offsetInCU: 0x36969, offset: 0x36969, size: 0x8, addend: 0x0, symName: __ZZ5solvevENKUlxxE_clExx, symObjAddr: 0x176C, symBinAddr: 0x100003EA8, symSize: 0x144 }
  - { offsetInCU: 0x36971, offset: 0x36971, size: 0x8, addend: 0x0, symName: __Z5solvev, symObjAddr: 0x18B0, symBinAddr: 0x100003FEC, symSize: 0x534 }
  - { offsetInCU: 0x36C73, offset: 0x36C73, size: 0x8, addend: 0x0, symName: __Z6solve_xxRNSt7__debug6vectorIxSaIxEEExxxxx, symObjAddr: 0x1090, symBinAddr: 0x1000037CC, symSize: 0x6DC }
  - { offsetInCU: 0x36C7B, offset: 0x36C7B, size: 0x8, addend: 0x0, symName: __ZZ5solvevENKUlxxE_clExx, symObjAddr: 0x176C, symBinAddr: 0x100003EA8, symSize: 0x144 }
  - { offsetInCU: 0x36DBC, offset: 0x36DBC, size: 0x8, addend: 0x0, symName: __ZZ6solve_xxRNSt7__debug6vectorIxSaIxEEExxxxxENKUlxxE_clExx, symObjAddr: 0xF4C, symBinAddr: 0x100003688, symSize: 0x144 }
  - { offsetInCU: 0x36DC4, offset: 0x36DC4, size: 0x8, addend: 0x0, symName: __Z6solve_xxRNSt7__debug6vectorIxSaIxEEExxxxx, symObjAddr: 0x1090, symBinAddr: 0x1000037CC, symSize: 0x6DC }
  - { offsetInCU: 0x37150, offset: 0x37150, size: 0x8, addend: 0x0, symName: __ZN11__gnu_debug14_Safe_iteratorIN9__gnu_cxx17__normal_iteratorIPNSt7__debug6vectorIxSaIxEEENSt9__cxx19986vectorIS6_SaIS6_EEEEENS4_IS6_SA_EESt26random_access_iterator_tagED1Ev, symObjAddr: 0xF2C, symBinAddr: 0x100003668, symSize: 0x20 }
  - { offsetInCU: 0x37158, offset: 0x37158, size: 0x8, addend: 0x0, symName: __ZZ6solve_xxRNSt7__debug6vectorIxSaIxEEExxxxxENKUlxxE_clExx, symObjAddr: 0xF4C, symBinAddr: 0x100003688, symSize: 0x144 }
  - { offsetInCU: 0x371AE, offset: 0x371AE, size: 0x8, addend: 0x0, symName: __ZN11__gnu_debug14_Safe_iteratorIN9__gnu_cxx17__normal_iteratorIPNSt7__debug6vectorIxSaIxEEENSt9__cxx19986vectorIS6_SaIS6_EEEEENS4_IS6_SA_EESt26bidirectional_iterator_tagED2Ev, symObjAddr: 0xF0C, symBinAddr: 0x100003648, symSize: 0x20 }
  - { offsetInCU: 0x371B6, offset: 0x371B6, size: 0x8, addend: 0x0, symName: __ZN11__gnu_debug14_Safe_iteratorIN9__gnu_cxx17__normal_iteratorIPNSt7__debug6vectorIxSaIxEEENSt9__cxx19986vectorIS6_SaIS6_EEEEENS4_IS6_SA_EESt26random_access_iterator_tagED1Ev, symObjAddr: 0xF2C, symBinAddr: 0x100003668, symSize: 0x20 }
  - { offsetInCU: 0x37205, offset: 0x37205, size: 0x8, addend: 0x0, symName: __ZN11__gnu_debug14_Safe_iteratorIN9__gnu_cxx17__normal_iteratorIPNSt7__debug6vectorIxSaIxEEENSt9__cxx19986vectorIS6_SaIS6_EEEEENS4_IS6_SA_EESt20forward_iterator_tagED2Ev, symObjAddr: 0xEE8, symBinAddr: 0x100003624, symSize: 0x24 }
  - { offsetInCU: 0x3720D, offset: 0x3720D, size: 0x8, addend: 0x0, symName: __ZN11__gnu_debug14_Safe_iteratorIN9__gnu_cxx17__normal_iteratorIPNSt7__debug6vectorIxSaIxEEENSt9__cxx19986vectorIS6_SaIS6_EEEEENS4_IS6_SA_EESt26bidirectional_iterator_tagED2Ev, symObjAddr: 0xF0C, symBinAddr: 0x100003648, symSize: 0x20 }
  - { offsetInCU: 0x37221, offset: 0x37221, size: 0x8, addend: 0x0, symName: __ZN9__gnu_cxx17__normal_iteratorIPKNSt7__debug6vectorIxSaIxEEENSt9__cxx19986vectorIS4_SaIS4_EEEEC1ERKS6_, symObjAddr: 0xEC0, symBinAddr: 0x1000035FC, symSize: 0x28 }
  - { offsetInCU: 0x37229, offset: 0x37229, size: 0x8, addend: 0x0, symName: __ZN11__gnu_debug14_Safe_iteratorIN9__gnu_cxx17__normal_iteratorIPNSt7__debug6vectorIxSaIxEEENSt9__cxx19986vectorIS6_SaIS6_EEEEENS4_IS6_SA_EESt20forward_iterator_tagED2Ev, symObjAddr: 0xEE8, symBinAddr: 0x100003624, symSize: 0x24 }
  - { offsetInCU: 0x371F5, offset: 0x371F5, size: 0x8, addend: 0x0, symName: __ZNKSt9__cxx19986vectorINSt7__debug6vectorIxSaIxEEESaIS4_EE5beginEv, symObjAddr: 0xE9C, symBinAddr: 0x1000035D8, symSize: 0x24 }
  - { offsetInCU: 0x371FD, offset: 0x371FD, size: 0x8, addend: 0x0, symName: __ZN9__gnu_cxx17__normal_iteratorIPKNSt7__debug6vectorIxSaIxEEENSt9__cxx19986vectorIS4_SaIS4_EEEEC1ERKS6_, symObjAddr: 0xEC0, symBinAddr: 0x1000035FC, symSize: 0x28 }
  - { offsetInCU: 0x37226, offset: 0x37226, size: 0x8, addend: 0x0, symName: __ZNKSt9__cxx19986vectorINSt7__debug6vectorIxSaIxEEESaIS4_EE5emptyEv, symObjAddr: 0xE60, symBinAddr: 0x10000359C, symSize: 0x3C }
  - { offsetInCU: 0x3722E, offset: 0x3722E, size: 0x8, addend: 0x0, symName: __ZNKSt9__cxx19986vectorINSt7__debug6vectorIxSaIxEEESaIS4_EE5beginEv, symObjAddr: 0xE9C, symBinAddr: 0x1000035D8, symSize: 0x24 }
  - { offsetInCU: 0x37269, offset: 0x37269, size: 0x8, addend: 0x0, symName: __Z3dfsxxx, symObjAddr: 0xB40, symBinAddr: 0x10000327C, symSize: 0x320 }
  - { offsetInCU: 0x37271, offset: 0x37271, size: 0x8, addend: 0x0, symName: __ZNKSt9__cxx19986vectorINSt7__debug6vectorIxSaIxEEESaIS4_EE5emptyEv, symObjAddr: 0xE60, symBinAddr: 0x10000359C, symSize: 0x3C }
  - { offsetInCU: 0x3744F, offset: 0x3744F, size: 0x8, addend: 0x0, symName: __ZNKSt9__cxx19986vectorINSt7__debug6vectorIxSaIxEEESaIS4_EE4sizeEv, symObjAddr: 0xB04, symBinAddr: 0x100003240, symSize: 0x3C }
  - { offsetInCU: 0x37457, offset: 0x37457, size: 0x8, addend: 0x0, symName: __Z3dfsxxx, symObjAddr: 0xB40, symBinAddr: 0x10000327C, symSize: 0x320 }
  - { offsetInCU: 0x37584, offset: 0x37584, size: 0x8, addend: 0x0, symName: __ZN11__gnu_debug14_Safe_iteratorIN9__gnu_cxx17__normal_iteratorIPxNSt9__cxx19986vectorIxSaIxEEEEENSt7__debug6vectorIxS6_EESt26random_access_iterator_tagED1Ev, symObjAddr: 0xAE4, symBinAddr: 0x100003220, symSize: 0x20 }
  - { offsetInCU: 0x3758C, offset: 0x3758C, size: 0x8, addend: 0x0, symName: __ZNKSt9__cxx19986vectorINSt7__debug6vectorIxSaIxEEESaIS4_EE4sizeEv, symObjAddr: 0xB04, symBinAddr: 0x100003240, symSize: 0x3C }
  - { offsetInCU: 0x375E2, offset: 0x375E2, size: 0x8, addend: 0x0, symName: __ZN11__gnu_debug14_Safe_iteratorIN9__gnu_cxx17__normal_iteratorIPxNSt9__cxx19986vectorIxSaIxEEEEENSt7__debug6vectorIxS6_EESt26bidirectional_iterator_tagED2Ev, symObjAddr: 0xAC4, symBinAddr: 0x100003200, symSize: 0x20 }
  - { offsetInCU: 0x375EA, offset: 0x375EA, size: 0x8, addend: 0x0, symName: __ZN11__gnu_debug14_Safe_iteratorIN9__gnu_cxx17__normal_iteratorIPxNSt9__cxx19986vectorIxSaIxEEEEENSt7__debug6vectorIxS6_EESt26random_access_iterator_tagED1Ev, symObjAddr: 0xAE4, symBinAddr: 0x100003220, symSize: 0x20 }
  - { offsetInCU: 0x37639, offset: 0x37639, size: 0x8, addend: 0x0, symName: __ZN11__gnu_debug14_Safe_iteratorIN9__gnu_cxx17__normal_iteratorIPxNSt9__cxx19986vectorIxSaIxEEEEENSt7__debug6vectorIxS6_EESt20forward_iterator_tagED2Ev, symObjAddr: 0xAA0, symBinAddr: 0x1000031DC, symSize: 0x24 }
  - { offsetInCU: 0x37641, offset: 0x37641, size: 0x8, addend: 0x0, symName: __ZN11__gnu_debug14_Safe_iteratorIN9__gnu_cxx17__normal_iteratorIPxNSt9__cxx19986vectorIxSaIxEEEEENSt7__debug6vectorIxS6_EESt26bidirectional_iterator_tagED2Ev, symObjAddr: 0xAC4, symBinAddr: 0x100003200, symSize: 0x20 }
  - { offsetInCU: 0x3760D, offset: 0x3760D, size: 0x8, addend: 0x0, symName: __ZNSt7__debug6vectorIxSaIxEEC1Ev, symObjAddr: 0xA68, symBinAddr: 0x1000031A4, symSize: 0x38 }
  - { offsetInCU: 0x37615, offset: 0x37615, size: 0x8, addend: 0x0, symName: __ZN11__gnu_debug14_Safe_iteratorIN9__gnu_cxx17__normal_iteratorIPxNSt9__cxx19986vectorIxSaIxEEEEENSt7__debug6vectorIxS6_EESt20forward_iterator_tagED2Ev, symObjAddr: 0xAA0, symBinAddr: 0x1000031DC, symSize: 0x24 }
  - { offsetInCU: 0x3765A, offset: 0x3765A, size: 0x8, addend: 0x0, symName: __ZNSt9__cxx19986vectorIxSaIxEEC2Ev, symObjAddr: 0xA48, symBinAddr: 0x100003184, symSize: 0x20 }
  - { offsetInCU: 0x37662, offset: 0x37662, size: 0x8, addend: 0x0, symName: __ZNSt7__debug6vectorIxSaIxEEC1Ev, symObjAddr: 0xA68, symBinAddr: 0x1000031A4, symSize: 0x38 }
  - { offsetInCU: 0x376AC, offset: 0x376AC, size: 0x8, addend: 0x0, symName: __ZNSt9__cxx199812_Vector_baseIxSaIxEEC2Ev, symObjAddr: 0xA28, symBinAddr: 0x100003164, symSize: 0x20 }
  - { offsetInCU: 0x376B4, offset: 0x376B4, size: 0x8, addend: 0x0, symName: __ZNSt9__cxx19986vectorIxSaIxEEC2Ev, symObjAddr: 0xA48, symBinAddr: 0x100003184, symSize: 0x20 }
  - { offsetInCU: 0x37717, offset: 0x37717, size: 0x8, addend: 0x0, symName: __ZNSt9__cxx199812_Vector_baseIxSaIxEE12_Vector_implD1Ev, symObjAddr: 0xA08, symBinAddr: 0x100003144, symSize: 0x20 }
  - { offsetInCU: 0x3771F, offset: 0x3771F, size: 0x8, addend: 0x0, symName: __ZNSt9__cxx199812_Vector_baseIxSaIxEEC2Ev, symObjAddr: 0xA28, symBinAddr: 0x100003164, symSize: 0x20 }
  - { offsetInCU: 0x377B0, offset: 0x377B0, size: 0x8, addend: 0x0, symName: __ZN11__gnu_debug15_Safe_containerINSt7__debug6vectorIxSaIxEEES3_NS_14_Safe_sequenceELb1EEC2Ev, symObjAddr: 0x9E8, symBinAddr: 0x100003124, symSize: 0x20 }
  - { offsetInCU: 0x377B8, offset: 0x377B8, size: 0x8, addend: 0x0, symName: __ZNSt9__cxx199812_Vector_baseIxSaIxEE12_Vector_implD1Ev, symObjAddr: 0xA08, symBinAddr: 0x100003144, symSize: 0x20 }
  - { offsetInCU: 0x377E2, offset: 0x377E2, size: 0x8, addend: 0x0, symName: __ZN11__gnu_debug14_Safe_sequenceINSt7__debug6vectorIxSaIxEEEEC2Ev, symObjAddr: 0x9C8, symBinAddr: 0x100003104, symSize: 0x20 }
  - { offsetInCU: 0x377EA, offset: 0x377EA, size: 0x8, addend: 0x0, symName: __ZN11__gnu_debug15_Safe_containerINSt7__debug6vectorIxSaIxEEES3_NS_14_Safe_sequenceELb1EEC2Ev, symObjAddr: 0x9E8, symBinAddr: 0x100003124, symSize: 0x20 }
  - { offsetInCU: 0x3781B, offset: 0x3781B, size: 0x8, addend: 0x0, symName: __ZNSt7__debug6vectorIxSaIxEED1Ev, symObjAddr: 0x99C, symBinAddr: 0x1000030D8, symSize: 0x2C }
  - { offsetInCU: 0x37823, offset: 0x37823, size: 0x8, addend: 0x0, symName: __ZN11__gnu_debug14_Safe_sequenceINSt7__debug6vectorIxSaIxEEEEC2Ev, symObjAddr: 0x9C8, symBinAddr: 0x100003104, symSize: 0x20 }
  - { offsetInCU: 0x378B5, offset: 0x378B5, size: 0x8, addend: 0x0, symName: __ZN11__gnu_debug15_Safe_containerINSt7__debug6vectorIxSaIxEEES3_NS_14_Safe_sequenceELb1EED2Ev, symObjAddr: 0x97C, symBinAddr: 0x1000030B8, symSize: 0x20 }
  - { offsetInCU: 0x378BD, offset: 0x378BD, size: 0x8, addend: 0x0, symName: __ZNSt7__debug6vectorIxSaIxEED1Ev, symObjAddr: 0x99C, symBinAddr: 0x1000030D8, symSize: 0x2C }
  - { offsetInCU: 0x378F6, offset: 0x378F6, size: 0x8, addend: 0x0, symName: __ZN11__gnu_debug14_Safe_sequenceINSt7__debug6vectorIxSaIxEEEED2Ev, symObjAddr: 0x95C, symBinAddr: 0x100003098, symSize: 0x20 }
  - { offsetInCU: 0x378FE, offset: 0x378FE, size: 0x8, addend: 0x0, symName: __ZN11__gnu_debug15_Safe_containerINSt7__debug6vectorIxSaIxEEES3_NS_14_Safe_sequenceELb1EED2Ev, symObjAddr: 0x97C, symBinAddr: 0x1000030B8, symSize: 0x20 }
  - { offsetInCU: 0x3792E, offset: 0x3792E, size: 0x8, addend: 0x0, symName: __ZNSt7__debug6vectorINS0_IxSaIxEEESaIS2_EEC1Ev, symObjAddr: 0x924, symBinAddr: 0x100003060, symSize: 0x38 }
  - { offsetInCU: 0x37936, offset: 0x37936, size: 0x8, addend: 0x0, symName: __ZN11__gnu_debug14_Safe_sequenceINSt7__debug6vectorIxSaIxEEEED2Ev, symObjAddr: 0x95C, symBinAddr: 0x100003098, symSize: 0x20 }
  - { offsetInCU: 0x37989, offset: 0x37989, size: 0x8, addend: 0x0, symName: __ZNSt9__cxx19986vectorINSt7__debug6vectorIxSaIxEEESaIS4_EEC2Ev, symObjAddr: 0x904, symBinAddr: 0x100003040, symSize: 0x20 }
  - { offsetInCU: 0x37991, offset: 0x37991, size: 0x8, addend: 0x0, symName: __ZNSt7__debug6vectorINS0_IxSaIxEEESaIS2_EEC1Ev, symObjAddr: 0x924, symBinAddr: 0x100003060, symSize: 0x38 }
  - { offsetInCU: 0x379DB, offset: 0x379DB, size: 0x8, addend: 0x0, symName: __ZNSt9__cxx199812_Vector_baseINSt7__debug6vectorIxSaIxEEESaIS4_EEC2Ev, symObjAddr: 0x8E4, symBinAddr: 0x100003020, symSize: 0x20 }
  - { offsetInCU: 0x379E3, offset: 0x379E3, size: 0x8, addend: 0x0, symName: __ZNSt9__cxx19986vectorINSt7__debug6vectorIxSaIxEEESaIS4_EEC2Ev, symObjAddr: 0x904, symBinAddr: 0x100003040, symSize: 0x20 }
  - { offsetInCU: 0x37A46, offset: 0x37A46, size: 0x8, addend: 0x0, symName: __ZNSt9__cxx199812_Vector_baseINSt7__debug6vectorIxSaIxEEESaIS4_EE12_Vector_implD1Ev, symObjAddr: 0x8C4, symBinAddr: 0x100003000, symSize: 0x20 }
  - { offsetInCU: 0x37A4E, offset: 0x37A4E, size: 0x8, addend: 0x0, symName: __ZNSt9__cxx199812_Vector_baseINSt7__debug6vectorIxSaIxEEESaIS4_EEC2Ev, symObjAddr: 0x8E4, symBinAddr: 0x100003020, symSize: 0x20 }
  - { offsetInCU: 0x37AE3, offset: 0x37AE3, size: 0x8, addend: 0x0, symName: __ZN11__gnu_debug15_Safe_containerINSt7__debug6vectorINS2_IxSaIxEEESaIS4_EEES5_NS_14_Safe_sequenceELb1EED2Ev, symObjAddr: 0x8A4, symBinAddr: 0x100002FE0, symSize: 0x20 }
  - { offsetInCU: 0x37AEB, offset: 0x37AEB, size: 0x8, addend: 0x0, symName: __ZNSt9__cxx199812_Vector_baseINSt7__debug6vectorIxSaIxEEESaIS4_EE12_Vector_implD1Ev, symObjAddr: 0x8C4, symBinAddr: 0x100003000, symSize: 0x20 }
  - { offsetInCU: 0x37B2E, offset: 0x37B2E, size: 0x8, addend: 0x0, symName: __ZN11__gnu_debug15_Safe_containerINSt7__debug6vectorINS2_IxSaIxEEESaIS4_EEES5_NS_14_Safe_sequenceELb1EEC2Ev, symObjAddr: 0x884, symBinAddr: 0x100002FC0, symSize: 0x20 }
  - { offsetInCU: 0x37B36, offset: 0x37B36, size: 0x8, addend: 0x0, symName: __ZN11__gnu_debug15_Safe_containerINSt7__debug6vectorINS2_IxSaIxEEESaIS4_EEES5_NS_14_Safe_sequenceELb1EED2Ev, symObjAddr: 0x8A4, symBinAddr: 0x100002FE0, symSize: 0x20 }
  - { offsetInCU: 0x37B82, offset: 0x37B82, size: 0x8, addend: 0x0, symName: __ZN11__gnu_debug14_Safe_sequenceINSt7__debug6vectorINS2_IxSaIxEEESaIS4_EEEED2Ev, symObjAddr: 0x864, symBinAddr: 0x100002FA0, symSize: 0x20 }
  - { offsetInCU: 0x37B8A, offset: 0x37B8A, size: 0x8, addend: 0x0, symName: __ZN11__gnu_debug15_Safe_containerINSt7__debug6vectorINS2_IxSaIxEEESaIS4_EEES5_NS_14_Safe_sequenceELb1EEC2Ev, symObjAddr: 0x884, symBinAddr: 0x100002FC0, symSize: 0x20 }
  - { offsetInCU: 0x37BD0, offset: 0x37BD0, size: 0x8, addend: 0x0, symName: __ZN11__gnu_debug14_Safe_sequenceINSt7__debug6vectorINS2_IxSaIxEEESaIS4_EEEEC2Ev, symObjAddr: 0x844, symBinAddr: 0x100002F80, symSize: 0x20 }
  - { offsetInCU: 0x37BD8, offset: 0x37BD8, size: 0x8, addend: 0x0, symName: __ZN11__gnu_debug14_Safe_sequenceINSt7__debug6vectorINS2_IxSaIxEEESaIS4_EEEED2Ev, symObjAddr: 0x864, symBinAddr: 0x100002FA0, symSize: 0x20 }
  - { offsetInCU: 0x37BB0, offset: 0x37BB0, size: 0x8, addend: 0x0, symName: __ZNKSt6chrono8durationIxSt5ratioILl1ELl1000000000EEE5countEv, symObjAddr: 0x82C, symBinAddr: 0x100002F68, symSize: 0x18 }
  - { offsetInCU: 0x37BB8, offset: 0x37BB8, size: 0x8, addend: 0x0, symName: __ZN11__gnu_debug14_Safe_sequenceINSt7__debug6vectorINS2_IxSaIxEEESaIS4_EEEEC2Ev, symObjAddr: 0x844, symBinAddr: 0x100002F80, symSize: 0x20 }
  - { offsetInCU: 0x37C12, offset: 0x37C12, size: 0x8, addend: 0x0, symName: __ZSt3minImERKT_S2_S2_, symObjAddr: 0x7F4, symBinAddr: 0x100002F30, symSize: 0x38 }
  - { offsetInCU: 0x37C1A, offset: 0x37C1A, size: 0x8, addend: 0x0, symName: __ZNKSt6chrono8durationIxSt5ratioILl1ELl1000000000EEE5countEv, symObjAddr: 0x82C, symBinAddr: 0x100002F68, symSize: 0x18 }
  - { offsetInCU: 0x37C41, offset: 0x37C41, size: 0x8, addend: 0x0, symName: __ZNK11__gnu_debug19_Safe_sequence_base17_M_invalidate_allEv, symObjAddr: 0x7A0, symBinAddr: 0x100002EDC, symSize: 0x54 }
  - { offsetInCU: 0x37C49, offset: 0x37C49, size: 0x8, addend: 0x0, symName: __ZSt3minImERKT_S2_S2_, symObjAddr: 0x7F4, symBinAddr: 0x100002F30, symSize: 0x38 }
  - { offsetInCU: 0x37CC6, offset: 0x37CC6, size: 0x8, addend: 0x0, symName: __ZN11__gnu_debug19_Safe_sequence_baseD2Ev, symObjAddr: 0x780, symBinAddr: 0x100002EBC, symSize: 0x20 }
  - { offsetInCU: 0x37CCE, offset: 0x37CCE, size: 0x8, addend: 0x0, symName: __ZNK11__gnu_debug19_Safe_sequence_base17_M_invalidate_allEv, symObjAddr: 0x7A0, symBinAddr: 0x100002EDC, symSize: 0x54 }
  - { offsetInCU: 0x37D25, offset: 0x37D25, size: 0x8, addend: 0x0, symName: __ZN11__gnu_debug19_Safe_sequence_baseC2EOS0_, symObjAddr: 0x750, symBinAddr: 0x100002E8C, symSize: 0x30 }
  - { offsetInCU: 0x37D2D, offset: 0x37D2D, size: 0x8, addend: 0x0, symName: __ZN11__gnu_debug19_Safe_sequence_baseD2Ev, symObjAddr: 0x780, symBinAddr: 0x100002EBC, symSize: 0x20 }
  - { offsetInCU: 0x37D87, offset: 0x37D87, size: 0x8, addend: 0x0, symName: __ZN11__gnu_debug19_Safe_sequence_baseC2ERKS0_, symObjAddr: 0x72C, symBinAddr: 0x100002E68, symSize: 0x24 }
  - { offsetInCU: 0x37D8F, offset: 0x37D8F, size: 0x8, addend: 0x0, symName: __ZN11__gnu_debug19_Safe_sequence_baseC2EOS0_, symObjAddr: 0x750, symBinAddr: 0x100002E8C, symSize: 0x30 }
  - { offsetInCU: 0x37DDB, offset: 0x37DDB, size: 0x8, addend: 0x0, symName: __ZN11__gnu_debug19_Safe_sequence_baseC1Ev, symObjAddr: 0x6FC, symBinAddr: 0x100002E38, symSize: 0x30 }
  - { offsetInCU: 0x37DE3, offset: 0x37DE3, size: 0x8, addend: 0x0, symName: __ZN11__gnu_debug19_Safe_sequence_baseC2ERKS0_, symObjAddr: 0x72C, symBinAddr: 0x100002E68, symSize: 0x24 }
  - { offsetInCU: 0x37E0B, offset: 0x37E0B, size: 0x8, addend: 0x0, symName: __ZN11__gnu_debug19_Safe_sequence_baseC2Ev, symObjAddr: 0x6CC, symBinAddr: 0x100002E08, symSize: 0x30 }
  - { offsetInCU: 0x37E13, offset: 0x37E13, size: 0x8, addend: 0x0, symName: __ZN11__gnu_debug19_Safe_sequence_baseC1Ev, symObjAddr: 0x6FC, symBinAddr: 0x100002E38, symSize: 0x30 }
  - { offsetInCU: 0x37E65, offset: 0x37E65, size: 0x8, addend: 0x0, symName: __ZN11__gnu_debug19_Safe_iterator_baseD2Ev, symObjAddr: 0x6AC, symBinAddr: 0x100002DE8, symSize: 0x20 }
  - { offsetInCU: 0x37E6D, offset: 0x37E6D, size: 0x8, addend: 0x0, symName: __ZN11__gnu_debug19_Safe_sequence_baseC2Ev, symObjAddr: 0x6CC, symBinAddr: 0x100002E08, symSize: 0x30 }
  - { offsetInCU: 0x37EED, offset: 0x37EED, size: 0x8, addend: 0x0, symName: __ZN11__gnu_debug19_Safe_iterator_baseC2EPKNS_19_Safe_sequence_baseEb, symObjAddr: 0x65C, symBinAddr: 0x100002D98, symSize: 0x50 }
  - { offsetInCU: 0x37EF5, offset: 0x37EF5, size: 0x8, addend: 0x0, symName: __ZN11__gnu_debug19_Safe_iterator_baseD2Ev, symObjAddr: 0x6AC, symBinAddr: 0x100002DE8, symSize: 0x20 }
  - { offsetInCU: 0x37F3D, offset: 0x37F3D, size: 0x8, addend: 0x0, symName: __ZN9__gnu_cxx13__scoped_lockD1Ev, symObjAddr: 0x638, symBinAddr: 0x100002D74, symSize: 0x24 }
  - { offsetInCU: 0x37F45, offset: 0x37F45, size: 0x8, addend: 0x0, symName: __ZN11__gnu_debug19_Safe_iterator_baseC2EPKNS_19_Safe_sequence_baseEb, symObjAddr: 0x65C, symBinAddr: 0x100002D98, symSize: 0x50 }
  - { offsetInCU: 0x37FA5, offset: 0x37FA5, size: 0x8, addend: 0x0, symName: __ZN9__gnu_cxx13__scoped_lockC1ERNS_7__mutexE, symObjAddr: 0x604, symBinAddr: 0x100002D40, symSize: 0x34 }
  - { offsetInCU: 0x37FAD, offset: 0x37FAD, size: 0x8, addend: 0x0, symName: __ZN9__gnu_cxx13__scoped_lockD1Ev, symObjAddr: 0x638, symBinAddr: 0x100002D74, symSize: 0x24 }
  - { offsetInCU: 0x37FB5, offset: 0x37FB5, size: 0x8, addend: 0x0, symName: __ZN9__gnu_cxx7__mutex6unlockEv, symObjAddr: 0x5AC, symBinAddr: 0x100002CE8, symSize: 0x58 }
  - { offsetInCU: 0x37FBD, offset: 0x37FBD, size: 0x8, addend: 0x0, symName: __ZN9__gnu_cxx13__scoped_lockC1ERNS_7__mutexE, symObjAddr: 0x604, symBinAddr: 0x100002D40, symSize: 0x34 }
  - { offsetInCU: 0x37FE6, offset: 0x37FE6, size: 0x8, addend: 0x0, symName: __ZN9__gnu_cxx7__mutex4lockEv, symObjAddr: 0x554, symBinAddr: 0x100002C90, symSize: 0x58 }
  - { offsetInCU: 0x37FEE, offset: 0x37FEE, size: 0x8, addend: 0x0, symName: __ZN9__gnu_cxx7__mutex6unlockEv, symObjAddr: 0x5AC, symBinAddr: 0x100002CE8, symSize: 0x58 }
  - { offsetInCU: 0x3806B, offset: 0x3806B, size: 0x8, addend: 0x0, symName: __ZN9__gnu_cxx32__throw_concurrence_unlock_errorEv, symObjAddr: 0x518, symBinAddr: 0x100002C54, symSize: 0x3C }
  - { offsetInCU: 0x38073, offset: 0x38073, size: 0x8, addend: 0x0, symName: __ZN9__gnu_cxx7__mutex4lockEv, symObjAddr: 0x554, symBinAddr: 0x100002C90, symSize: 0x58 }
  - { offsetInCU: 0x38094, offset: 0x38094, size: 0x8, addend: 0x0, symName: __ZN9__gnu_cxx26__concurrence_unlock_errorD0Ev, symObjAddr: 0x4F0, symBinAddr: 0x100002C2C, symSize: 0x28 }
  - { offsetInCU: 0x3809C, offset: 0x3809C, size: 0x8, addend: 0x0, symName: __ZN9__gnu_cxx32__throw_concurrence_unlock_errorEv, symObjAddr: 0x518, symBinAddr: 0x100002C54, symSize: 0x3C }
  - { offsetInCU: 0x380C4, offset: 0x380C4, size: 0x8, addend: 0x0, symName: __ZN9__gnu_cxx26__concurrence_unlock_errorD1Ev, symObjAddr: 0x4BC, symBinAddr: 0x100002BF8, symSize: 0x34 }
  - { offsetInCU: 0x380CC, offset: 0x380CC, size: 0x8, addend: 0x0, symName: __ZN9__gnu_cxx26__concurrence_unlock_errorD0Ev, symObjAddr: 0x4F0, symBinAddr: 0x100002C2C, symSize: 0x28 }
  - { offsetInCU: 0x38112, offset: 0x38112, size: 0x8, addend: 0x0, symName: __ZN9__gnu_cxx26__concurrence_unlock_errorC1Ev, symObjAddr: 0x488, symBinAddr: 0x100002BC4, symSize: 0x34 }
  - { offsetInCU: 0x3811A, offset: 0x3811A, size: 0x8, addend: 0x0, symName: __ZN9__gnu_cxx26__concurrence_unlock_errorD1Ev, symObjAddr: 0x4BC, symBinAddr: 0x100002BF8, symSize: 0x34 }
  - { offsetInCU: 0x38164, offset: 0x38164, size: 0x8, addend: 0x0, symName: __ZN9__gnu_cxx30__throw_concurrence_lock_errorEv, symObjAddr: 0x44C, symBinAddr: 0x100002B88, symSize: 0x3C }
  - { offsetInCU: 0x3816C, offset: 0x3816C, size: 0x8, addend: 0x0, symName: __ZN9__gnu_cxx26__concurrence_unlock_errorC1Ev, symObjAddr: 0x488, symBinAddr: 0x100002BC4, symSize: 0x34 }
  - { offsetInCU: 0x3818F, offset: 0x3818F, size: 0x8, addend: 0x0, symName: __ZN9__gnu_cxx24__concurrence_lock_errorD0Ev, symObjAddr: 0x424, symBinAddr: 0x100002B60, symSize: 0x28 }
  - { offsetInCU: 0x38197, offset: 0x38197, size: 0x8, addend: 0x0, symName: __ZN9__gnu_cxx30__throw_concurrence_lock_errorEv, symObjAddr: 0x44C, symBinAddr: 0x100002B88, symSize: 0x3C }
  - { offsetInCU: 0x381BF, offset: 0x381BF, size: 0x8, addend: 0x0, symName: __ZN9__gnu_cxx24__concurrence_lock_errorD1Ev, symObjAddr: 0x3F0, symBinAddr: 0x100002B2C, symSize: 0x34 }
  - { offsetInCU: 0x381C7, offset: 0x381C7, size: 0x8, addend: 0x0, symName: __ZN9__gnu_cxx24__concurrence_lock_errorD0Ev, symObjAddr: 0x424, symBinAddr: 0x100002B60, symSize: 0x28 }
  - { offsetInCU: 0x3820D, offset: 0x3820D, size: 0x8, addend: 0x0, symName: __ZN9__gnu_cxx24__concurrence_lock_errorC1Ev, symObjAddr: 0x3BC, symBinAddr: 0x100002AF8, symSize: 0x34 }
  - { offsetInCU: 0x38215, offset: 0x38215, size: 0x8, addend: 0x0, symName: __ZN9__gnu_cxx24__concurrence_lock_errorD1Ev, symObjAddr: 0x3F0, symBinAddr: 0x100002B2C, symSize: 0x34 }
  - { offsetInCU: 0x38211, offset: 0x38211, size: 0x8, addend: 0x0, symName: __ZNK9__gnu_cxx26__concurrence_unlock_error4whatEv, symObjAddr: 0x3A4, symBinAddr: 0x100002AE0, symSize: 0x18 }
  - { offsetInCU: 0x38219, offset: 0x38219, size: 0x8, addend: 0x0, symName: __ZN9__gnu_cxx24__concurrence_lock_errorC1Ev, symObjAddr: 0x3BC, symBinAddr: 0x100002AF8, symSize: 0x34 }
  - { offsetInCU: 0x38242, offset: 0x38242, size: 0x8, addend: 0x0, symName: __ZNK9__gnu_cxx24__concurrence_lock_error4whatEv, symObjAddr: 0x38C, symBinAddr: 0x100002AC8, symSize: 0x18 }
  - { offsetInCU: 0x3824A, offset: 0x3824A, size: 0x8, addend: 0x0, symName: __ZNK9__gnu_cxx26__concurrence_unlock_error4whatEv, symObjAddr: 0x3A4, symBinAddr: 0x100002AE0, symSize: 0x18 }
  - { offsetInCU: 0x3828F, offset: 0x3828F, size: 0x8, addend: 0x0, symName: __ZL22__gthread_mutex_unlockP23_opaque_pthread_mutex_t, symObjAddr: 0x34C, symBinAddr: 0x100002A88, symSize: 0x40 }
  - { offsetInCU: 0x38297, offset: 0x38297, size: 0x8, addend: 0x0, symName: __ZNK9__gnu_cxx24__concurrence_lock_error4whatEv, symObjAddr: 0x38C, symBinAddr: 0x100002AC8, symSize: 0x18 }
  - { offsetInCU: 0x382C9, offset: 0x382C9, size: 0x8, addend: 0x0, symName: __ZL20__gthread_mutex_lockP23_opaque_pthread_mutex_t, symObjAddr: 0x30C, symBinAddr: 0x100002A48, symSize: 0x40 }
  - { offsetInCU: 0x382D1, offset: 0x382D1, size: 0x8, addend: 0x0, symName: __ZL22__gthread_mutex_unlockP23_opaque_pthread_mutex_t, symObjAddr: 0x34C, symBinAddr: 0x100002A88, symSize: 0x40 }
  - { offsetInCU: 0x38303, offset: 0x38303, size: 0x8, addend: 0x0, symName: __ZL18__gthread_active_pv, symObjAddr: 0x304, symBinAddr: 0x100002A40, symSize: 0x8 }
  - { offsetInCU: 0x3830B, offset: 0x3830B, size: 0x8, addend: 0x0, symName: __ZL20__gthread_mutex_lockP23_opaque_pthread_mutex_t, symObjAddr: 0x30C, symBinAddr: 0x100002A48, symSize: 0x40 }
  - { offsetInCU: 0x38340, offset: 0x38340, size: 0x8, addend: 0x0, symName: __ZSt17__size_to_integerm, symObjAddr: 0x2F0, symBinAddr: 0x100002A2C, symSize: 0x14 }
  - { offsetInCU: 0x38348, offset: 0x38348, size: 0x8, addend: 0x0, symName: __ZL18__gthread_active_pv, symObjAddr: 0x304, symBinAddr: 0x100002A40, symSize: 0x8 }
  - { offsetInCU: 0x38351, offset: 0x38351, size: 0x8, addend: 0x0, symName: __ZN11__gnu_debug16_Error_formatter5_S_atEPKcjS2_, symObjAddr: 0x25C, symBinAddr: 0x100002998, symSize: 0x94 }
  - { offsetInCU: 0x38359, offset: 0x38359, size: 0x8, addend: 0x0, symName: __ZSt17__size_to_integerm, symObjAddr: 0x2F0, symBinAddr: 0x100002A2C, symSize: 0x14 }
  - { offsetInCU: 0x38402, offset: 0x38402, size: 0x8, addend: 0x0, symName: __ZZN11__gnu_debug16_Error_formatter5_S_atEPKcjS2_E11__formatter, symObjAddr: 0xBD00, symBinAddr: 0x10001C000, symSize: 0x0 }
  - { offsetInCU: 0x3844D, offset: 0x3844D, size: 0x8, addend: 0x0, symName: __ZN11__gnu_debug16_Error_formatterC1EPKcjS2_, symObjAddr: 0x1D0, symBinAddr: 0x10000290C, symSize: 0x8C }
  - { offsetInCU: 0x38455, offset: 0x38455, size: 0x8, addend: 0x0, symName: __ZN11__gnu_debug16_Error_formatter5_S_atEPKcjS2_, symObjAddr: 0x25C, symBinAddr: 0x100002998, symSize: 0x94 }
  - { offsetInCU: 0x38477, offset: 0x38477, size: 0x8, addend: 0x0, symName: __ZN11__gnu_debug16_Error_formatter10_M_integerElPKc, symObjAddr: 0x13C, symBinAddr: 0x100002878, symSize: 0x94 }
  - { offsetInCU: 0x3847F, offset: 0x3847F, size: 0x8, addend: 0x0, symName: __ZN11__gnu_debug16_Error_formatterC1EPKcjS2_, symObjAddr: 0x1D0, symBinAddr: 0x10000290C, symSize: 0x8C }
  - { offsetInCU: 0x3854A, offset: 0x3854A, size: 0x8, addend: 0x0, symName: __ZN11__gnu_debug16_Error_formatter10_ParameterC1ElPKc, symObjAddr: 0xE8, symBinAddr: 0x100002824, symSize: 0x54 }
  - { offsetInCU: 0x38552, offset: 0x38552, size: 0x8, addend: 0x0, symName: __ZN11__gnu_debug16_Error_formatter10_M_integerElPKc, symObjAddr: 0x13C, symBinAddr: 0x100002878, symSize: 0x94 }
  - { offsetInCU: 0x385AC, offset: 0x385AC, size: 0x8, addend: 0x0, symName: __ZN11__gnu_debug16_Error_formatter10_ParameterC1Ev, symObjAddr: 0xB8, symBinAddr: 0x1000027F4, symSize: 0x30 }
  - { offsetInCU: 0x385B4, offset: 0x385B4, size: 0x8, addend: 0x0, symName: __ZN11__gnu_debug16_Error_formatter10_ParameterC1ElPKc, symObjAddr: 0xE8, symBinAddr: 0x100002824, symSize: 0x54 }
  - { offsetInCU: 0x385ED, offset: 0x385ED, size: 0x8, addend: 0x0, symName: __ZN11__gnu_debug20__check_singular_auxEPKv, symObjAddr: 0xA4, symBinAddr: 0x1000027E0, symSize: 0x14 }
  - { offsetInCU: 0x385F5, offset: 0x385F5, size: 0x8, addend: 0x0, symName: __ZN11__gnu_debug16_Error_formatter10_ParameterC1Ev, symObjAddr: 0xB8, symBinAddr: 0x1000027F4, symSize: 0x30 }
  - { offsetInCU: 0x385EF, offset: 0x385EF, size: 0x8, addend: 0x0, symName: __ZdlPvS_, symObjAddr: 0x8C, symBinAddr: 0x1000027C8, symSize: 0x18 }
  - { offsetInCU: 0x385F7, offset: 0x385F7, size: 0x8, addend: 0x0, symName: __ZN11__gnu_debug20__check_singular_auxEPKv, symObjAddr: 0xA4, symBinAddr: 0x1000027E0, symSize: 0x14 }
  - { offsetInCU: 0x3862E, offset: 0x3862E, size: 0x8, addend: 0x0, symName: __ZnwmPv, symObjAddr: 0x74, symBinAddr: 0x1000027B0, symSize: 0x18 }
  - { offsetInCU: 0x38636, offset: 0x38636, size: 0x8, addend: 0x0, symName: __ZdlPvS_, symObjAddr: 0x8C, symBinAddr: 0x1000027C8, symSize: 0x18 }
  - { offsetInCU: 0x38699, offset: 0x38699, size: 0x8, addend: 0x0, symName: __ZNSt9exceptionC2Ev, symObjAddr: 0x4C, symBinAddr: 0x100002788, symSize: 0x28 }
  - { offsetInCU: 0x386A1, offset: 0x386A1, size: 0x8, addend: 0x0, symName: __ZnwmPv, symObjAddr: 0x74, symBinAddr: 0x1000027B0, symSize: 0x18 }
  - { offsetInCU: 0x386F6, offset: 0x386F6, size: 0x8, addend: 0x0, symName: __ZStleSt15strong_orderingNSt9__cmp_cat8__unspecE, symObjAddr: 0x28, symBinAddr: 0x100002764, symSize: 0x24 }
  - { offsetInCU: 0x386FE, offset: 0x386FE, size: 0x8, addend: 0x0, symName: __ZNSt9exceptionC2Ev, symObjAddr: 0x4C, symBinAddr: 0x100002788, symSize: 0x28 }
  - { offsetInCU: 0x38747, offset: 0x38747, size: 0x8, addend: 0x0, symName: __ZNSt9__cmp_cat8__unspecC1EPS0_, symObjAddr: 0x10, symBinAddr: 0x10000274C, symSize: 0x18 }
  - { offsetInCU: 0x3874F, offset: 0x3874F, size: 0x8, addend: 0x0, symName: __ZStleSt15strong_orderingNSt9__cmp_cat8__unspecE, symObjAddr: 0x28, symBinAddr: 0x100002764, symSize: 0x24 }
  - { offsetInCU: 0x3879D, offset: 0x3879D, size: 0x8, addend: 0x0, symName: __ZSt21is_constant_evaluatedv, symObjAddr: 0x8, symBinAddr: 0x100002744, symSize: 0x8 }
  - { offsetInCU: 0x387A5, offset: 0x387A5, size: 0x8, addend: 0x0, symName: __ZNSt9__cmp_cat8__unspecC1EPS0_, symObjAddr: 0x10, symBinAddr: 0x10000274C, symSize: 0x18 }
  - { offsetInCU: 0x387CB, offset: 0x387CB, size: 0x8, addend: 0x0, symName: __ZSt23__is_constant_evaluatedv, symObjAddr: 0x0, symBinAddr: 0x10000273C, symSize: 0x8 }
  - { offsetInCU: 0x387D3, offset: 0x387D3, size: 0x8, addend: 0x0, symName: __ZSt21is_constant_evaluatedv, symObjAddr: 0x8, symBinAddr: 0x100002744, symSize: 0x8 }
...
